((dp0
S'arm_dbg_args'
p1
S'-via:"d:\\marm\\Stage2\\build_stage2_vc12x\\Stage2_vc12x_arm_debug.via" -qemu'
p2
sS'game-icf'
p3
S''
p4
sS'dist'
p5
NsS'csproj'
p6
g4
sS'module_path_append'
p7
NsS'global_path'
p8
S'd:\\marm'
p9
sS'system_path'
p10
S'd:\\marmalade\\7.8\\s3e\\makefile_builder'
p11
sS'android_x86_dbg_args'
p12
S'../../tools/DeployTool/DeployTool.exe --dir "d:\\marm\\Stage2\\build_stage2_vc12x"'
p13
sS'aarch64-arch-mod'
p14
g4
sS'no-emit'
p15
NsS'arm-float-abi'
p16
g4
sS'arm_rel_rtsm_args'
p17
S'-via:"d:\\marm\\Stage2\\build_stage2_vc12x\\Stage2_vc12x_arm_release.via" -qemu'
p18
sS'amd64'
p19
NsS'line-width'
p20
I80
sS'gcc_dbg_args'
p21
S'-via:"d:\\marm\\Stage2\\build_stage2_vc12x\\Stage2_vc12x_gcc_debug.via" -qemu'
p22
sS'sim-release-loader'
p23
NsS'android-x86'
p24
NsS'x86_dbg_exe'
p25
S'd:/marmalade/7.8/s3e\\win32\\s3e_simulator_debug.exe'
p26
sS'jflags'
p27
NsS'nacl_x86_64_rel_args'
p28
g13
sS'release'
p29
NsS'no-make'
p30
NsS'xcode-x86-build-settings'
p31
g4
sS'optimise-size'
p32
NsS'fat'
p33
NsS'output-name-debug'
p34
g4
sS'arm-fpu'
p35
g4
sS'proj_name'
p36
S'Stage2_vc12x'
p37
sS'rvct-version'
p38
S'none'
p39
sS'compiler'
p40
g4
sS'execute'
p41
NsS'compile-static'
p42
NsS'nacl_x86_64_rel_exe'
p43
S'd:\\marmalade\\7.8\\s3e\\makefile_builder\\tool_launcher.exe'
p44
sS'msvc-project'
p45
I01
sS'buildenv'
p46
g4
sS'quick'
p47
NsS'module_path'
p48
NsS'mkf_default'
p49
S's3e-default.mkf'
p50
sS'use-release-std-libs'
p51
NsS'using_perforce'
p52
I00
sS'tizen-x86'
p53
NsS'mips-s3e'
p54
NsS's3e-api-lib-name'
p55
S's3e_api_iwgl'
p56
sS'ios-no-pic'
p57
NsS'shared-arm-lib'
p58
NsS'arm-cpu'
p59
g4
sS'compile-thumb'
p60
NsS'no-ide'
p61
NsS'msvc-version'
p62
S'6.0'
p63
sS'arm'
p64
NsS'nacl_x86_64_dbg_exe'
p65
g44
sS'builddir'
p66
g4
sS'compile-debug-as-release'
p67
I0
sS'arm-arch'
p68
g4
sS'brief'
p69
NsS'dll'
p70
NsS'buildenv-toolset'
p71
g4
sS'version'
p72
NsS'aarch64-arch'
p73
g4
sS'ccache'
p74
I0
sS'offline'
p75
NsS'ios-version'
p76
g4
sS'hub_data'
p77
g4
sS'fake_vc_call'
p78
NsS'jobs'
p79
I0
sS'linkflags'
p80
NsS'gcc_aarch64_dbg_args'
p81
g13
sS'nacl_x86_64_dbg_args'
p82
g13
sS'debug'
p83
NsS'xcode-build-order'
p84
g4
sS'gcc_aarch64_rel_rtsm_args'
p85
S'-via:"d:\\marm\\Stage2\\build_stage2_vc12x\\Stage2_vc12x_gcc_aarch64_release.via" -qemu'
p86
sS'gcc_rel_rtsm_args'
p87
S'-via:"d:\\marm\\Stage2\\build_stage2_vc12x\\Stage2_vc12x_gcc_release.via" -qemu'
p88
sS'done_defaults'
p89
I1
sS'path'
p90
(lp91
S'd:/marmalade/7.8/tools/gcc/x86_64/nacl_windows/toolchain/win_x86_glibc/bin'
p92
asS's3e-data-dir'
p93
S'd:/marm/Stage2\\data'
p94
sS'enable-exceptions'
p95
NsS'osx-dll'
p96
NsS'extension'
p97
g4
sS'no-vc6'
p98
NsS'aarch64'
p99
NsS'win32-console'
p100
NsS'dist-format'
p101
g4
sS's3e-force-arch'
p102
NsS'dump_defines'
p103
NsS'use-shared-std-libs'
p104
NsS'gcc-version'
p105
g4
sS'x86_dbg_args'
p106
S'-via:"d:\\marm\\Stage2\\build_stage2_vc12x\\Stage2_vc12x_debug.via"'
p107
sS'nacl'
p108
NsS'tizen_x86_dbg_args'
p109
g13
sS'arm-debugger'
p110
g4
sS'use_temp_extension'
p111
NsS'verbose'
p112
I0
sS'log'
p113
NsS'no-strip'
p114
NsS'rebuild'
p115
NsS'mips_dbg_args'
p116
g13
sS'win32-simulator-dll'
p117
NsS'strict'
p118
NsS'xcode-aarch64-build-settings'
p119
g4
sS'enable-global-path'
p120
NsS'gcc_aarch64_rel_args'
p121
g13
sS'cflags'
p122
NsS'dist-dir'
p123
g4
sS'xcode-arm-build-settings'
p124
g4
sS'disable-runtime-checks'
p125
NsS'csprojSDKRefs'
p126
g4
sS'tizen_x86_rel_exe'
p127
g44
sS'test-assets'
p128
g4
sS'distcc'
p129
NsS'external-compiler'
p130
NsS'no-distcc'
p131
NsS'retry-build'
p132
S'0'
p133
sS'preinclude'
p134
NsS'using_sdk'
p135
I01
sS'nologo'
p136
NsS'warn-level'
p137
I2
sS'mips_dbg_exe'
p138
g44
sS'mkb_in'
p139
S'd:/marm/Stage2/Stage2.mkb'
p140
sS'no-objc-arc'
p141
NsS'tizen_x86_dbg_exe'
p142
g44
sS'arm_dbg_exe'
p143
S'd:/marmalade/7.8/s3e\\bin\\armdebug.exe'
p144
sS'mdev-first'
p145
NsS'csprojDLLRef'
p146
NsS'tizen_x86_rel_args'
p147
g13
sS'android_x86_dbg_exe'
p148
g44
sS'naclx86_64'
p149
NsS'test-config'
p150
g4
sS'list-targets'
p151
NsS'arm_rel_exe'
p152
g44
sS'arm_rel_args'
p153
g13
sS'makedeps'
p154
NsS'android_x86_rel_exe'
p155
g44
sS'default-buildenv'
p156
S'vc12x'
p157
sS'x86_rel_exe'
p158
g26
sS'preprocess-java'
p159
NsS'mips_rel_args'
p160
g13
sS'defines'
p161
NsS'lib'
p162
NsS'non-interactive'
p163
NsS'global_argv'
p164
(lp165
S'D:\\Marmalade\\7.8\\s3e\\makefile_builder\\mkb.py'
p166
aS'd:/marm/Stage2/Stage2.mkb'
p167
aS'--default-buildenv=vc12x'
p168
aS'--msvc-project'
p169
asS'make'
p170
NsS'optimise-speed'
p171
NsS'internal'
p172
NsS'enable-stdinc'
p173
NsS'deploy-only'
p174
NsS'x86'
p175
NsS'deploy'
p176
g4
sS'objc-arc'
p177
NsS'x86_run_exe'
p178
S'd:/marmalade/7.8/s3e\\win32\\s3e_simulator_debug.exe'
p179
sS'cxxflags'
p180
NsS'x86_rel_args'
p181
S'-via:"d:\\marm\\Stage2\\build_stage2_vc12x\\Stage2_vc12x_release.via"'
p182
sS'gcc_rel_args'
p183
g13
sS'mips'
p184
NsS'xcode-build-settings'
p185
g4
sS'incredibuild'
p186
NsS'strict-compile'
p187
NsS'use-auto-subdirs'
p188
NsS'mips_rel_exe'
p189
g44
sS'android_x86_rel_args'
p190
g13
sS'app-icf'
p191
g4
sS'deployargs'
p192
NsS'iosnativedebug'
p193
NsS'use_prebuilt'
p194
NsS'mkf_in'
p195
(lp196
S'd:\\marmalade\\7.8\\s3e\\s3e-default.mkf'
p197
aS'd:\\marmalade\\7.8\\extensions\\s3eamazonads\\s3eamazonads.mkf'
p198
aS'd:\\marmalade\\7.8\\modules\\iwutil\\iwutil.mkf'
p199
aS'd:\\marmalade\\7.8\\modules\\third_party\\libjpeg\\libjpeg.mkf'
p200
aS'd:\\marmalade\\7.8\\modules\\third_party\\libpng\\libpng.mkf'
p201
aS'd:\\marmalade\\7.8\\modules\\third_party\\zlib\\zlib.mkf'
p202
aS'd:\\marmalade\\7.8\\platform_libs\\android\\amazon-ads-android-sdk\\amazon-ads-android-sdk.mkf'
p203
aS'd:\\marmalade\\7.8\\platform_libs\\iphone\\amazon-ads-ios-sdk\\amazon-ads-ios-sdk.mkf'
p204
aS'd:\\marmalade\\7.8\\modules\\iw2d\\iw2d.mkf'
p205
aS'd:\\marmalade\\7.8\\modules\\iwgx\\iwgx.mkf'
p206
aS'd:\\marmalade\\7.8\\modules\\iwgl\\iwgl.mkf'
p207
aS'd:\\marmalade\\7.8\\modules\\iwgeom\\iwgeom.mkf'
p208
aS'd:\\marmalade\\7.8\\modules\\iwresmanager\\iwresmanager.mkf'
p209
aS'd:\\marmalade\\7.8\\extensions\\pvrtextool\\pvrtextool.mkf'
p210
aS'd:\\marmalade\\7.8\\modules\\iwgxfont\\iwgxfont.mkf'
p211
aS'd:\\marmalade\\7.8\\modules\\third_party\\tiniconv\\tiniconv.mkf'
p212
aS'd:\\marm\\stage2\\modules\\soundengine\\soundengine.mkf'
p213
asS'strict-mkb'
p214
NsS'executeargs'
p215
NsS'clean'
p216
NsS'no-asm'
p217
NsS'output-name'
p218
g4
sS'no-modules'
p219
NsS'find_define'
p220
g4
s(dp221
S'd:\\marmalade\\7.8\\s3e\\makefile_builder\\templates\\wp8_csproj.pyc'
p222
F1433996294.0
sS'd:\\marmalade\\7.8\\s3e\\makefile_builder\\plugins\\s3e_wp8.pyc'
p223
F1433996224.0
sS'd:\\marmalade\\7.8\\s3e\\makefile_builder\\plugins\\s3e_qmake.py'
p224
F1433986780.0
sS'd:\\marmalade\\7.8\\s3e\\makefile_builder\\templates\\mips_linker_script'
p225
F1433986780.0
sS'd:\\marmalade\\7.8\\s3e\\makefile_builder\\templates\\win8_ext_csproj.pyc'
p226
F1433995774.0
sS'd:\\marmalade\\7.8\\s3e\\makefile_builder\\mkb_upstream.pyc'
p227
F1433995942.0
sS'd:\\marmalade\\7.8\\s3e\\makefile_builder\\plugins\\null.pyc'
p228
F1433995914.0
sS'd:\\marmalade\\7.8\\s3e\\makefile_builder\\plugins\\java.pyc'
p229
F1433995830.0
sS'd:\\marmalade\\7.8\\s3e\\makefile_builder\\plugins\\Emitter.pyc'
p230
F1433995862.0
sS'd:\\marmalade\\7.8\\s3e\\makefile_builder\\templates\\wp81_vcxproj.pyc'
p231
F1433995734.0
sS'd:\\marmalade\\7.8\\s3e\\makefile_builder\\templates\\vc10_user.pyc'
p232
F1433996206.0
sS'd:\\marmalade\\7.8\\s3e\\makefile_builder\\templates\\ws8_csproj.pyc'
p233
F1433996176.0
sS'd:\\marmalade\\7.8\\s3e\\makefile_builder\\templates\\xcode.py'
p234
F1433986780.0
sS'd:\\marmalade\\7.8\\s3e\\makefile_builder\\templates\\template.opt'
p235
F1433986780.0
sS'd:\\marmalade\\7.8\\s3e\\makefile_builder\\mkb_main.pyc'
p236
F1433995866.0
sS'd:\\marmalade\\7.8\\s3e\\makefile_builder\\plugins\\ws81_ws81.pyc'
p237
F1433995890.0
sS'd:\\marmalade\\7.8\\s3e\\makefile_builder\\plugins\\s3e_web.pyc'
p238
F1433995886.0
sS'd:\\marmalade\\7.8\\s3e\\makefile_builder\\templates\\vc8_user.pyc'
p239
F1433995962.0
sS'd:\\marmalade\\7.8\\s3e\\makefile_builder\\mkb_option.pyc'
p240
F1433995462.0
sS'd:\\marmalade\\7.8\\s3e\\makefile_builder\\templates\\qmake_user.py'
p241
F1433986780.0
sS'd:\\marmalade\\7.8\\s3e\\makefile_builder\\plugins\\XcodeEmitter.py'
p242
F1433986780.0
sS'd:\\marmalade\\7.8\\s3e\\makefile_builder\\templates\\win32_vcxproj.pyc'
p243
F1433996256.0
sS'd:\\marmalade\\7.8\\s3e\\makefile_builder\\templates\\win32_vcxproj_filters.pyc'
p244
F1433995626.0
sS'd:\\marmalade\\7.8\\s3e\\makefile_builder\\mkb_parser.pyc'
p245
F1433995732.0
sS'd:\\marmalade\\7.8\\s3e\\makefile_builder\\plugins\\xcode4_schememanagement.pyc'
p246
F1435327459.1968088
sS'd:\\marmalade\\7.8\\s3e\\makefile_builder\\templates\\ws8_csproj_user.pyc'
p247
F1433995498.0
sS'd:\\marmalade\\7.8\\s3e\\makefile_builder\\templates\\ws8_vcxproj.pyc'
p248
F1433996308.0
sS'd:\\marmalade\\7.8\\s3e\\makefile_builder\\templates\\rvct_linker_script'
p249
F1433986780.0
sS'd:\\marmalade\\7.8\\s3e\\makefile_builder\\templates\\wp81_sln.pyc'
p250
F1433995882.0
sS'd:\\marmalade\\7.8\\s3e\\makefile_builder\\templates\\wp8_ext_csproj.pyc'
p251
F1433996336.0
sS'd:\\marmalade\\7.8\\s3e\\makefile_builder\\plugins\\ws8_ws8.pyc'
p252
F1433996320.0
sS'd:\\marmalade\\7.8\\s3e\\makefile_builder\\plugins\\linux_scons.pyc'
p253
F1433996320.0
sS'd:\\marmalade\\7.8\\s3e\\makefile_builder\\docs\\deprecated.options.txt'
p254
F1433986780.0
sS'd:\\marmalade\\7.8\\s3e\\makefile_builder\\templates\\make.py'
p255
F1433986780.0
sS'd:\\marmalade\\7.8\\s3e\\makefile_builder\\templates\\wp81_ext_csproj.pyc'
p256
F1433996264.0
sS'd:\\marmalade\\7.8\\s3e\\makefile_builder\\docs\\options.txt'
p257
F1433986780.0
sS'd:\\marmalade\\7.8\\s3e\\makefile_builder\\templates\\scons.pyc'
p258
F1433996314.0
sS'd:\\marmalade\\7.8\\s3e\\makefile_builder\\templates\\MainWindow.xib'
p259
F1433986780.0
sS'd:\\marmalade\\7.8\\s3e\\makefile_builder\\templates\\ws81_sln.pyc'
p260
F1433996252.0
sS'd:\\marmalade\\7.8\\s3e\\makefile_builder\\nacl.mkf'
p261
F1433986780.0
sS'd:\\marmalade\\7.8\\s3e\\makefile_builder\\plugins\\osx_xcode.pyc'
p262
F1433995568.0
sS'd:\\marmalade\\7.8\\s3e\\makefile_builder\\templates\\xcode4_DeployTool.xcscheme'
p263
F1433986780.0
sS'd:\\marmalade\\7.8\\s3e\\makefile_builder\\templates'
p264
F1435324443.2877717
sS'd:\\marmalade\\7.8\\s3e\\makefile_builder\\plugins\\SConsEmitter.pyc'
p265
F1433995690.0
sS'd:\\marmalade\\7.8\\s3e\\makefile_builder\\mkb.py'
p266
F1433986780.0
sS'd:\\marmalade\\7.8\\s3e\\makefile_builder\\deployment.pyc'
p267
F1433996006.0
sS'd:\\marmalade\\7.8\\s3e\\makefile_builder\\templates\\vc6_opt.pyc'
p268
F1433996264.0
sS'd:\\marmalade\\7.8\\s3e\\makefile_builder\\templates\\ws8_ext_csproj.pyc'
p269
F1433995624.0
sS'd:\\marmalade\\7.8\\s3e\\makefile_builder\\templates\\wp81_ext_sln.pyc'
p270
F1433995710.0
sS'd:\\marmalade\\7.8\\s3e\\makefile_builder\\templates\\wp81_csproj_user.pyc'
p271
F1433995866.0
sS'd:\\marmalade\\7.8\\s3e\\makefile_builder\\templates\\xcode4.xcscheme'
p272
F1433986780.0
sS'd:\\marmalade\\7.8\\s3e\\makefile_builder\\docs\\deployment_options.txt'
p273
F1433986780.0
sS'd:\\marmalade\\7.8\\s3e\\makefile_builder\\tool_launcher.exe'
p274
F1433987744.0
sS'd:\\marmalade\\7.8\\s3e\\makefile_builder\\templates\\ws81_csproj.pyc'
p275
F1433995690.0
sS'd:\\marmalade\\7.8\\s3e\\makefile_builder\\plugins\\s3e_qmake.pyc'
p276
F1435327459.5449991
sS'd:\\marmalade\\7.8\\s3e\\makefile_builder\\templates\\win8_csproj_user.pyc'
p277
F1433995626.0
sS'd:\\marmalade\\7.8\\s3e\\makefile_builder\\plugins\\VisualStudioEmitter.pyc'
p278
F1433995812.0
sS'd:\\marmalade\\7.8\\s3e\\makefile_builder\\plugins\\s3e_win8.pyc'
p279
F1433995702.0
sS'd:\\marmalade\\7.8\\s3e\\makefile_builder\\templates\\ws81_csproj_user.pyc'
p280
F1433996282.0
sS'd:\\marmalade\\7.8\\s3e\\makefile_builder\\plugins\\osx_scons.pyc'
p281
F1433995628.0
sS'd:\\marmalade\\7.8\\s3e\\makefile_builder\\docs'
p282
F1435324440.7419636
sS'd:\\marmalade\\7.8\\s3e\\makefile_builder\\docs\\parse_options.pyc'
p283
F1433996292.0
sS'd:\\marmalade\\7.8\\s3e\\makefile_builder\\templates\\xcode4_arm.xcscheme'
p284
F1433986780.0
sS'd:\\marmalade\\7.8\\s3e\\makefile_builder\\templates\\ws81_vcxproj.pyc'
p285
F1433996176.0
sS'd:\\marmalade\\7.8\\s3e\\makefile_builder\\templates\\wp8_csproj_user.pyc'
p286
F1433996036.0
sS'd:\\marmalade\\7.8\\s3e\\makefile_builder\\plugins\\wp81_wp81.pyc'
p287
F1433995472.0
sS'd:\\marmalade\\7.8\\s3e\\makefile_builder\\templates\\template.suo'
p288
F1433986780.0
sS'd:\\marmalade\\7.8\\s3e\\makefile_builder\\docs\\mkb.defines.txt'
p289
F1433986780.0
sS'd:\\marmalade\\7.8\\s3e\\makefile_builder\\templates\\win32_vcproj.pyc'
p290
F1433996210.0
sS'd:\\marmalade\\7.8\\s3e\\makefile_builder\\templates\\win8_sln.pyc'
p291
F1433995702.0
sS'd:\\marmalade\\7.8\\s3e\\makefile_builder\\plugins\\s3e_xcode.pyc'
p292
F1435327459.929272
sS'd:\\marmalade\\7.8\\s3e\\makefile_builder\\plugins\\win8_utils.pyc'
p293
F1433996252.0
sS'd:\\marmalade\\7.8\\s3e\\makefile_builder\\plugins'
p294
F1435327459.929272
sS'd:\\marmalade\\7.8\\s3e\\makefile_builder\\plugins\\xcode4_schememanagement.py'
p295
F1433986780.0
sS'd:\\marmalade\\7.8\\s3e\\makefile_builder\\mkb_util.pyc'
p296
F1433995748.0
sS'd:\\marmalade\\7.8\\s3e\\makefile_builder\\templates\\win32_dsp.pyc'
p297
F1433996292.0
sS'd:\\marmalade\\7.8\\s3e\\makefile_builder\\plugins\\vc7_utils.pyc'
p298
F1433995766.0
sS'd:\\marmalade\\7.8\\s3e\\makefile_builder\\plugins\\wp8_wp8.pyc'
p299
F1433995962.0
sS'd:\\marmalade\\7.8\\s3e\\makefile_builder\\templates\\win32_dsw.pyc'
p300
F1433995444.0
sS'd:\\marmalade\\7.8\\s3e\\makefile_builder\\templates\\wp81_csproj.pyc'
p301
F1433995810.0
sS'd:\\marmalade\\7.8\\s3e\\makefile_builder\\plugins\\XcodeEmitter.pyc'
p302
F1435327459.1337068
sS'd:\\marmalade\\7.8\\s3e\\makefile_builder\\templates\\wp8_vcxproj.pyc'
p303
F1433995812.0
sS'd:\\marmalade\\7.8\\s3e\\makefile_builder\\plugins\\s3e_ws81.pyc'
p304
F1433996282.0
sS'd:\\marmalade\\7.8\\s3e\\makefile_builder\\templates\\win8_csproj.pyc'
p305
F1433996352.0
sS'd:\\marmalade\\7.8\\s3e\\makefile_builder\\plugins\\s3e_scons.pyc'
p306
F1433995942.0
sS'd:\\marmalade\\7.8\\s3e\\makefile_builder\\templates\\Info.plist'
p307
F1433986780.0
sS'd:\\marmalade\\7.8\\s3e\\makefile_builder\\templates\\qmake.py'
p308
F1433986780.0
sS'd:\\marmalade\\7.8\\s3e\\makefile_builder\\templates\\ws8_ext_sln.pyc'
p309
F1433995538.0
sS'd:\\marmalade\\7.8\\s3e\\makefile_builder\\templates\\gdb_start.txt'
p310
F1433986780.0
sS'd:\\marmalade\\7.8\\s3e\\makefile_builder\\mkb_launcher.exe'
p311
F1433987744.0
sS'd:\\marmalade\\7.8\\s3e\\makefile_builder\\templates\\aarch64_linker_script'
p312
F1433986780.0
sS'd:\\marmalade\\7.8\\s3e\\makefile_builder\\plugins\\s3e_vc6.pyc'
p313
F1433995622.0
sS'd:\\marmalade\\7.8\\s3e\\makefile_builder\\plugins\\win32_vc6.pyc'
p314
F1433995664.0
sS'd:\\marmalade\\7.8\\s3e\\makefile_builder\\templates\\ws8_sln.pyc'
p315
F1433996252.0
sS'd:\\marmalade\\7.8\\s3e\\makefile_builder\\templates\\wp8_sln.pyc'
p316
F1433995626.0
sS'd:\\marmalade\\7.8\\s3e\\makefile_builder\\docs\\deprecated.defines.txt'
p317
F1433986780.0
sS'd:\\marmalade\\7.8\\s3e\\makefile_builder\\templates\\win8_vcxproj.pyc'
p318
F1433996320.0
sS'd:\\marmalade\\7.8\\s3e\\makefile_builder\\mkb_globals.pyc'
p319
F1433996320.0
sS'd:\\marmalade\\7.8\\s3e\\makefile_builder\\plugins\\S3EEmitter.pyc'
p320
F1433996282.0
sS'd:\\marmalade\\7.8\\s3e\\makefile_builder\\plugins\\Win8Emitter.pyc'
p321
F1433995972.0
sS'd:\\marmalade\\7.8\\s3e\\makefile_builder\\plugins\\deploy.pyc'
p322
F1433995872.0
sS'd:\\marmalade\\7.8\\s3e\\makefile_builder\\plugins\\MakeEmitter.pyc'
p323
F1433995776.0
sS'd:\\marmalade\\7.8\\s3e\\makefile_builder\\templates\\ws81_ext_csproj.pyc'
p324
F1433996144.0
sS'd:\\marmalade\\7.8\\s3e\\makefile_builder\\plugins\\iphone.pyc'
p325
F1433996012.0
sS'd:\\marmalade\\7.8\\s3e\\makefile_builder\\plugins\\s3e_wp81.pyc'
p326
F1433996216.0
sS'd:\\marmalade\\7.8\\s3e\\makefile_builder\\templates\\xcode_pbxuser.py'
p327
F1433986780.0
sS'd:\\marmalade\\7.8\\s3e\\makefile_builder\\plugins\\vc6_utils.pyc'
p328
F1433996256.0
sS'd:\\marmalade\\7.8\\s3e\\makefile_builder\\plugins\\s3e_make.pyc'
p329
F1433995438.0
sS'd:\\marmalade\\7.8\\s3e\\makefile_builder\\plugins\\s3e_xcode.py'
p330
F1433986780.0
sS'd:\\marmalade\\7.8\\s3e\\makefile_builder\\templates\\vc7_suo.pyc'
p331
F1433996216.0
sS'd:\\marmalade\\7.8\\s3e\\makefile_builder\\templates\\win32_sln.pyc'
p332
F1433996320.0
sS'd:\\marmalade\\7.8\\s3e\\makefile_builder\\templates\\ws81_ext_sln.pyc'
p333
F1433995658.0
sS'd:\\marmalade\\7.8\\s3e\\makefile_builder\\templates\\linker_script'
p334
F1433986780.0
sS'd:\\marmalade\\7.8\\s3e\\makefile_builder\\plugins\\s3e_ws8.pyc'
p335
F1433996272.0
sccopy_reg
_reconstructor
p336
(cmkb_main
MkbFile
p337
c__builtin__
object
p338
Ntp339
Rp340
(dp341
g5
(lp342
sS'target_name'
p343
S'Stage2'
p344
sS'current_file'
p345
g140
sS'package_path'
p346
(lp347
sS'post_build'
p348
(lp349
(lp350
S'd:/marmalade/7.8/s3e/tools'
p351
aS'D:\\Marmalade\\7.8\\s3e\\python\\python.exe .\\process_map.py "$(TargetPath)"'
p352
aa(S'd:\\marmalade\\7.8\\s3e\\bin'
p353
S'"s3e_plink" -l "$(TargetPath)" '
p354
g175
tp355
asS'librarys'
p356
(lp357
g336
(cmkb_main
Library
p358
g338
Ntp359
Rp360
(dp361
S'name'
p362
S'vc6_compat.lib'
p363
sS'expand_name'
p364
I00
sS'include_spec_rvct_objs'
p365
(lp366
sS'include_all_objs'
p367
I00
sS'share_arm'
p368
I00
sS'arch'
p369
S'x86'
p370
sS'nodebug'
p371
I00
sg40
Nsbag336
(g358
g338
Ntp372
Rp373
(dp374
g362
S'iwutil'
p375
sg364
I01
sg365
(lp376
sg367
Nsg368
Nsg369
Nsg371
I00
sg40
Nsbag336
(g358
g338
Ntp377
Rp378
(dp379
g362
S'jpeg'
p380
sg364
I01
sg365
g376
sg367
Nsg368
Nsg369
Nsg371
I00
sg40
Nsbag336
(g358
g338
Ntp381
Rp382
(dp383
g362
S'z'
p384
sg364
I01
sg365
g376
sg367
Nsg368
Nsg369
Nsg371
I00
sg40
Nsbag336
(g358
g338
Ntp385
Rp386
(dp387
g362
S'png'
p388
sg364
I01
sg365
g376
sg367
Nsg368
Nsg369
Nsg371
I00
sg40
Nsbag336
(g358
g338
Ntp389
Rp390
(dp391
g362
S'iw2d'
p392
sg364
I01
sg365
g376
sg367
Nsg368
Nsg369
Nsg371
I00
sg40
Nsbag336
(g358
g338
Ntp393
Rp394
(dp395
g362
S'ATI_Compress_MT_VC7.lib'
p396
sg364
I00
sg365
g376
sg367
Nsg368
Nsg369
S'x86'
p397
sg371
I00
sg40
Nsbag336
(g358
g338
Ntp398
Rp399
(dp400
g362
S'iwgx'
p401
sg364
I01
sg365
g376
sg367
Nsg368
Nsg369
Nsg371
I00
sg40
Nsbag336
(g358
g338
Ntp402
Rp403
(dp404
g362
S'iwgl'
p405
sg364
I01
sg365
g376
sg367
Nsg368
Nsg369
Nsg371
I00
sg40
Nsbag336
(g358
g338
Ntp406
Rp407
(dp408
g362
S'iwgeom'
p409
sg364
I01
sg365
g376
sg367
Nsg368
Nsg369
Nsg371
I00
sg40
Nsbag336
(g358
g338
Ntp410
Rp411
(dp412
g362
S'iwresmanager'
p413
sg364
I01
sg365
g376
sg367
Nsg368
Nsg369
Nsg371
I00
sg40
Nsbag336
(g358
g338
Ntp414
Rp415
(dp416
g362
S'iwgxfont'
p417
sg364
I01
sg365
g376
sg367
Nsg368
Nsg369
Nsg371
I00
sg40
Nsbag336
(g358
g338
Ntp418
Rp419
(dp420
g362
S'tiniconv'
p421
sg364
I01
sg365
g376
sg367
Nsg368
Nsg369
Nsg371
I00
sg40
Nsbag336
(g358
g338
Ntp422
Rp423
(dp424
g362
S's3e_cpp'
p425
sg364
I01
sg365
g366
sg367
I00
sg368
I00
sg369
Nsg371
I00
sg40
Nsbag336
(g358
g338
Ntp426
Rp427
(dp428
g362
S's3e_vc12'
p429
sg364
I01
sg365
(lp430
S'iwcrt.o'
p431
asg367
I00
sg368
I00
sg369
S'x86'
p432
sg371
I00
sg40
Nsbag336
(g358
g338
Ntp433
Rp434
(dp435
g362
S's3e'
p436
sg364
I01
sg365
(lp437
g431
asg367
I00
sg368
I00
sg369
S'!x86'
p438
sg371
I00
sg40
Nsbag336
(g358
g338
Ntp439
Rp440
(dp441
g362
g56
sg364
I01
sg365
g366
sg367
I00
sg368
I00
sg369
S'x86'
p442
sg371
I01
sg40
Nsbag336
(g358
g338
Ntp443
Rp444
(dp445
g362
g56
sg364
I01
sg365
g366
sg367
I00
sg368
I00
sg369
S'!x86'
p446
sg371
I01
sg40
Nsbag336
(g358
g338
Ntp447
Rp448
(dp449
g362
S'stdc++'
p450
sg364
I00
sg365
g366
sg367
I00
sg368
I00
sg369
S'mips'
p451
sg371
I00
sg40
Nsbag336
(g358
g338
Ntp452
Rp453
(dp454
g362
S'c'
p455
sg364
I00
sg365
g366
sg367
I00
sg368
I00
sg369
S'mips'
p456
sg371
I00
sg40
Nsbag336
(g358
g338
Ntp457
Rp458
(dp459
g362
S'm'
p460
sg364
I00
sg365
g366
sg367
I00
sg368
I00
sg369
S'mips'
p461
sg371
I00
sg40
Nsbag336
(g358
g338
Ntp462
Rp463
(dp464
g362
S'gcc'
p465
sg364
I00
sg365
g366
sg367
I00
sg368
I00
sg369
S'mips'
p466
sg371
I00
sg40
Nsbag336
(g358
g338
Ntp467
Rp468
(dp469
g362
g465
sg364
I00
sg365
g366
sg367
I00
sg368
I00
sg369
S'naclx86_64'
p470
sg371
I00
sg40
Nsbag336
(g358
g338
Ntp471
Rp472
(dp473
g362
S'gcc_eh'
p474
sg364
I00
sg365
g366
sg367
I00
sg368
I00
sg369
S'naclx86_64'
p475
sg371
I00
sg40
Nsbag336
(g358
g338
Ntp476
Rp477
(dp478
g362
g455
sg364
I00
sg365
g366
sg367
I00
sg368
I00
sg369
S'naclx86_64'
p479
sg371
I00
sg40
Nsbag336
(g358
g338
Ntp480
Rp481
(dp482
g362
g460
sg364
I00
sg365
g366
sg367
I00
sg368
I00
sg369
S'naclx86_64'
p483
sg371
I00
sg40
Nsbag336
(g358
g338
Ntp484
Rp485
(dp486
g362
S'supc++'
p487
sg364
I00
sg365
g366
sg367
I00
sg368
I00
sg369
S'naclx86_64'
p488
sg371
I00
sg40
Nsbag336
(g358
g338
Ntp489
Rp490
(dp491
g362
S'supc++'
p492
sg364
I00
sg365
g366
sg367
I00
sg368
I00
sg369
S'gcc_x86_android'
p493
sg371
I00
sg40
Nsbag336
(g358
g338
Ntp494
Rp495
(dp496
g362
g455
sg364
I00
sg365
g366
sg367
I00
sg368
I00
sg369
S'gcc_x86_android'
p497
sg371
I00
sg40
Nsbag336
(g358
g338
Ntp498
Rp499
(dp500
g362
g460
sg364
I00
sg365
g366
sg367
I00
sg368
I00
sg369
S'gcc_x86_android'
p501
sg371
I00
sg40
Nsbag336
(g358
g338
Ntp502
Rp503
(dp504
g362
g465
sg364
I00
sg365
g366
sg367
I00
sg368
I00
sg369
S'gcc_x86_android'
p505
sg371
I00
sg40
Nsbag336
(g358
g338
Ntp506
Rp507
(dp508
g362
S'dl'
p509
sg364
I00
sg365
g366
sg367
I00
sg368
I00
sg369
S'gcc_x86_android'
p510
sg371
I00
sg40
NsbasS'library_paths'
p511
(lp512
g336
(cmkb_main
LibraryPath
p513
g338
Ntp514
Rp515
(dp516
S'expand_path'
p517
I01
sg362
S'd:/marmalade/7.8/modules/iwutil'
p518
sbag336
(g513
g338
Ntp519
Rp520
(dp521
g517
I01
sg362
S'd:/marmalade/7.8/modules/third_party/libjpeg'
p522
sbag336
(g513
g338
Ntp523
Rp524
(dp525
g517
I01
sg362
S'd:/marmalade/7.8/modules/third_party/zlib'
p526
sbag336
(g513
g338
Ntp527
Rp528
(dp529
g517
I01
sg362
S'd:/marmalade/7.8/modules/third_party/libpng'
p530
sbag336
(g513
g338
Ntp531
Rp532
(dp533
g517
I01
sg362
S'd:/marmalade/7.8/modules/iw2d'
p534
sbag336
(g513
g338
Ntp535
Rp536
(dp537
g517
I00
sg362
S'd:/marmalade/7.8/modules/iwgx/atitools'
p538
sbag336
(g513
g338
Ntp539
Rp540
(dp541
g517
I01
sg362
S'd:/marmalade/7.8/modules/iwgx'
p542
sbag336
(g513
g338
Ntp543
Rp544
(dp545
g517
I01
sg362
S'd:/marmalade/7.8/modules/iwgl'
p546
sbag336
(g513
g338
Ntp547
Rp548
(dp549
g517
I01
sg362
S'd:/marmalade/7.8/modules/iwgeom'
p550
sbag336
(g513
g338
Ntp551
Rp552
(dp553
g517
I01
sg362
S'd:/marmalade/7.8/modules/iwresmanager'
p554
sbag336
(g513
g338
Ntp555
Rp556
(dp557
g517
I01
sg362
S'd:/marmalade/7.8/modules/iwgxfont'
p558
sbag336
(g513
g338
Ntp559
Rp560
(dp561
g517
I01
sg362
S'd:/marmalade/7.8/modules/third_party/tiniconv'
p562
sbag336
(g513
g338
Ntp563
Rp564
(dp565
g517
I01
sg362
S'd:/marmalade/7.8/s3e'
p566
sbasS'macros'
p567
(dp568
S'IW_TRACE_CHANNEL_AMAZONADS'
p569
S'1'
p570
sS'IW_USE_CALLSTACK'
p571
NsS'IW_PLATFORM_S3E'
p572
NsS'I3D_PLATFORM_S3E'
p573
NsS'__S3E__'
p574
NsS'IW_TRACE_CHANNEL_AMAZONADS_VERBOSE'
p575
S'2'
p576
sS'IW_MKF_LIBJPEG'
p577
NsS'I3D_OS_S3E'
p578
NsS'IW_MKF_PVRTEXTOOL'
p579
NsS'IW_MKF_AMAZON_ADS_IOS_SDK'
p580
NsS'IW_MKF_TINICONV'
p581
NsS'IW_APP_VERSION'
p582
S'"1.0"'
p583
sS'IW_MKF_IWRESMANAGER'
p584
NsS'IW_MKF_FREELICENSE'
p585
NsS'IW_MKF_S3EAMAZONADS'
p586
NsS'IW_MKF_IWUTIL'
p587
NsS'IW_MKF_IWGEOM'
p588
NsS'IW_MKF_AMAZON_ADS_ANDROID_SDK'
p589
NsS'IW_ASSERTION_CHANNEL_2D'
p590
g570
sS'IW_APP_NAME'
p591
S'"Stage2"'
p592
sS'IW_MKF_S3E_DEFAULT'
p593
NsS'IW_MKF_IWGXFONT'
p594
NsS'IW_MKF_ZLIB'
p595
NsS'IW_MKF_IWGX'
p596
NsS'IW_MKF_SOUNDENGINE'
p597
NsS'IW_ASSERTION_CHANNEL_AMAZONADS'
p598
g570
sS'IW_USE_ASSERTIONS'
p599
NsS'_CRT_SECURE_NO_DEPRECATE'
p600
NsS'IW_MKF_IWGL'
p601
NsS'IW_MKF_LIBPNG'
p602
NsS'IW_DEBUG'
p603
NsS'IW_USE_TRACING'
p604
NsS'IW_TRACE_CHANNEL_PVRTEXTOOL'
p605
g570
sS'IW_SDK'
p606
NsS'S3E_INCLUDE_LEGACY'
p607
NsS'IW_TRACE_CHANNEL_PVRTEXTOOL_VERBOSE'
p608
g576
sS'IW_MKF_IW2D'
p609
NsS'IW_ASSERTION_CHANNEL_PVRTEXTOOL'
p610
g570
ssS'done_warnings'
p611
(dp612
sS'subprojects'
p613
(dp614
g201
S'libpng'
p615
sg213
S'modules/SoundEngine'
p616
sg202
S'zlib'
p617
sg205
S'iw2d'
p618
sg209
S'iwresmanager'
p619
sg207
S'iwgl'
p620
sg199
S'iwutil'
p621
sg203
S'amazon-ads-android-sdk'
p622
sg200
S'libjpeg'
p623
sg210
S'PVRTexTool'
p624
sg198
S's3eAmazonAds'
p625
sg208
S'iwgeom'
p626
sg197
S's3e-default.mkf'
p627
sg206
S'iwgx'
p628
sg204
S'amazon-ads-ios-sdk'
p629
sg212
S'tiniconv'
p630
sg211
S'iwgxfont'
p631
ssS'deployments'
p632
(dp633
S'Default'
p634
g336
(cdeployment
Deployment
p635
g338
Ntp636
Rp637
(dp638
S'got_version'
p639
I0
sS'assets'
p640
g634
sS'mkb'
p641
g340
sS'target'
p642
Nsg369
(lp643
sS'options'
p644
(dp645
S'iphone-link-lib'
p646
(lp647
S's3eAmazonAds'
p648
asS'game-icf'
p649
NsS'android-tm'
p650
NsS'winmobile-icon32'
p651
NsS'ws8-logo-image150x150'
p652
NsS'wp81-logo-image150x150'
p653
NsS'android-keystore'
p654
NsS'osx-ext-dll'
p655
(lp656
S'd:/marmalade/7.8/extensions/pvrtextool/lib/osx/libPVRTexTool.dylib'
p657
asS'iphone-provisioning-profile'
p658
NsS'ws8-splash-screen-image620x300'
p659
NsS'wp81-extra-pri'
p660
(lp661
sS'ws8-ext-capabilities'
p662
(lp663
sS'android-icon-hdpi'
p664
NsS'iphone-ipad-only'
p665
NsS'iphone-splash-full-orient'
p666
NsS'wp8-tile-fliptemplate-supports-large'
p667
NsS'iphone-show-status-bar'
p668
NsS'roku-requires-mkv'
p669
NsS'long-caption'
p670
NsS'android-pkgname'
p671
NsS'ws8-ext-native-only-dll'
p672
(lp673
sS'wp81-publisher-display-name'
p674
NsS'blackberry-permissions-read-device-identifying-information'
p675
NsS'ws81-certificate-end-date'
p676
NsS'psp-dlgcontentid'
p677
NsS'iphone-minimum-ios-version'
p678
NsS'target-folder'
p679
NsS'tizen-dist1-CA-path'
p680
NsS'symbian-icon2-format'
p681
NsS'tizen-author-key'
p682
NsS'firefoxos-icon-128X128'
p683
NsS'iphone-region'
p684
NsS'uiq3-icon3-mask'
p685
NsS'brew-encoding'
p686
NsS'android-x86'
p687
NsS'nds-initialcode'
p688
NsS'iphone-persistent-wifi'
p689
NsS'psp-snd0'
p690
NsS'roku-icon-focus-hd'
p691
NsS'osx-appid'
p692
NsS'ws81-ext-native-only-dll'
p693
(lp694
sS'winmobile-install-folder'
p695
NsS'android-external-res'
p696
(lp697
sS'ws8-product-version'
p698
NsS'brew-priviledges'
p699
NsS'iphone-info-plist-override'
p700
NsS'iphone-icon-ipad'
p701
NsS'iphone-skip-icon-generation'
p702
NsS'nacl-icon-128X128'
p703
NsS'roku-hidden'
p704
NsS'psp-titlename'
p705
NsS'wp81-product-version'
p706
NsS'symbian-icon1-mask'
p707
NsS'psp-parentallevel'
p708
NsS'iphone-launch-storyboard'
p709
NsS'splashscreen-use-all'
p710
NsS'wp8-author'
p711
NsS'symbian-disable-ecompxl'
p712
NsS'splashscreen-auto-onblack'
p713
NsS'iphone-icon-dir'
p714
NsS'iphone-icon-extra'
p715
NsS'win32-ext-dll'
p716
(lp717
S'd:/marmalade/7.8/extensions/pvrtextool/lib/win32/PVRTexTool.dll'
p718
asS'iphone-development-key'
p719
NsS'winmobile-icon48'
p720
NsS'android-unsigned'
p721
NsS'osx-appstore-category'
p722
NsS'version-revision'
p723
NsS'roku-icon-focus-sd'
p724
NsS'ws81-product-version'
p725
NsS'winmobile-png90'
p726
NsS'iphone-icon-ipad-high-res'
p727
NsS'iphone-disable-ipad'
p728
NsS'ws81-splash-screen-background'
p729
NsS'wp8-ext-capabilities'
p730
(lp731
sS'brew-icon-large'
p732
NsS'symbian-icon1-mask-black'
p733
NsS'ws8-extra-res'
p734
(lp735
sS'iphone-bundle-localisations'
p736
NsS'winmobile-png60'
p737
NsS'blackberry-permissions-access-shared'
p738
NsS'blackberry-author'
p739
NsS'android-icon-xxxhdpi'
p740
NsS'olddeploytoolstyle'
p741
NsS'android_icon_gallery'
p742
NsS'wp81-splash-screen-background'
p743
NsS'winmobile-cab-compress'
p744
NsS'iphone-info-plist'
p745
NsS'ws81-ext-managed-dll'
p746
(lp747
sS'playbook-cskpass'
p748
NsS'win32-icon'
p749
NsS'symbian-key'
p750
NsS'app-icf'
p751
NsS'blackberry-storepass'
p752
NsS'wp8-tile-fliptemplate-back-title'
p753
NsS'brew-compress-loader'
p754
NsS'iphone-testflight'
p755
NsS'win32-pref-windowposy'
p756
NsS'win32-pref-windowposx'
p757
NsS'roku-requires-audiometadata'
p758
NsS'wp8-exclude-low-mem'
p759
NsS'android-min-sdk-version'
p760
NsS'wp8-tile-fliptemplate-title'
p761
NsS'iphone-icon-ipad-search-high-res'
p762
NsS'iphone-link-libdir'
p763
(lp764
S'd:/marmalade/7.8/extensions/s3eamazonads/lib/iphone'
p765
asS'wp81-ext-capabilities'
p766
(lp767
sS'blackberry-permissions-read-geolocation'
p768
NsS'ws81-ext-device-capabilities'
p769
(lp770
sS'tizen-signed'
p771
NsS'android-extra-application-manifest'
p772
(lp773
S'd:/marmalade/7.8/extensions/s3eamazonads/source/android/ExtraAppManifests.xml'
p774
asS'ws8-ext-native-dll'
p775
(lp776
sS'symbian-icon2-mask'
p777
NsS'iphone-launch-extra'
p778
NsS'webos-memory'
p779
NsS'android-keypass'
p780
NsS'name'
p781
NsS'uiq3-icon2-format'
p782
NsS'roku-splash-screen-sd'
p783
NsS'auto-derbh'
p784
NsS'roku-icon-side-sd'
p785
NsS'android-external-assets'
p786
(lp787
sS'nds-publicsavedatasize'
p788
NsS'splashscreen'
p789
NsS'brew-mif'
p790
NsS'iphone-icon-settings-high-res'
p791
NsS'android-manifest'
p792
NsS'ws81-splash-screen-image620x300'
p793
NsS'wp81-product-name'
p794
NsS's3e-compression'
p795
NsS'tizen-author-password'
p796
NsS'wp8-tile-fliptemplate-back-content'
p797
NsS'blackberry-extra-descriptor'
p798
(lp799
sS'android-java-source-version'
p800
NsS'symbian-icon1'
p801
NsS'symbian-icon2'
p802
NsS'nds-makercode'
p803
NsS'android-extra-styles-file'
p804
NsS'android-ext-target-sdk-version'
p805
(lp806
I17
asS'wp81-publisher-id'
p807
NsS'nds-bannertitle-jp'
p808
NsS'wp81-logo-image44x44'
p809
NsS'osx-sign-for-store'
p810
NsS'symbian7-uid'
p811
NsS'wp8-tile-fliptemplate-large-back-content'
p812
NsS'wp81-phone-publisher-id'
p813
NsS'nds-bannertitle-cn'
p814
NsS'iphone-distribution-key'
p815
NsS'android-icon-gallery'
p816
NsS'blackberry-keystore'
p817
NsS'iphone-nosign'
p818
NsS'caption'
p819
NsS'nacl-permissions'
p820
NsS'android-extra-manifest'
p821
(lp822
sS'wp81-ext-sdk-ref'
p823
(lp824
sS'android-icon-xxhdpi'
p825
NsS'version-minor'
p826
NsS'iphone-skip-launch-generation'
p827
NsS'iphone-link-libdirs'
p828
(lp829
sS'iphone-icon-large'
p830
NsS'symbian-keypwd'
p831
NsS'symbian8-uid'
p832
NsS'symbian-cert-key'
p833
NsS'winmobile-ampd-part-number'
p834
NsS'arch'
p835
NsS'nds-romheadertemplate'
p836
NsS'webos-icon'
p837
NsS'wp81-ext-device-capabilities'
p838
(lp839
sS'psp-dlgprotectdocument'
p840
NsS'ws8-splash-screen-background'
p841
NsS'android-icon-mdpi'
p842
NsS'android-sdk-build-tools-version'
p843
NsS'nds-icon'
p844
NsS'ws8-custom-manifest-fill'
p845
NsS'iphone-development-cert'
p846
NsS'symbian-icon2-mask-black'
p847
NsS'blackberry-phone-icon'
p848
NsS'iphone-enable-4inch-retina'
p849
NsS'ws8-custom-manifest'
p850
NsS'version-major'
p851
NsS'wp8-genre-isgame'
p852
NsS'uiq3-uid'
p853
NsS'iphone-splash-retina-generate'
p854
NsS'tizen-hw-acceleration'
p855
NsS'iphone_bundle_localisations'
p856
NsS'tizen-dist1-key'
p857
NsS'wp81-custom-manifest-fill'
p858
NsS'wp8-custom-manifest'
p859
NsS'nds-bannertitle-ge'
p860
NsS'iphone-sign-for-distribution'
p861
NsS'wp8-tile-fliptemplate-medium-back-image'
p862
NsS'wp8-publisher-id'
p863
NsS'icon'
p864
NsS'android-target-sdk-version'
p865
NsS'wp8-exclude-wxga'
p866
NsS'wp81-identity-name'
p867
NsS'uiq3-icon2-mask'
p868
NsS'iphone-splashscreen-portrait'
p869
NsS'iphone-icon-high-res'
p870
NsS'ws81-distribution-pfx-password'
p871
NsS'playbook-author'
p872
NsS'android-icon-xhdpi'
p873
NsS'linux-ext-lib'
p874
(lp875
sS'blackberry-permissions-access-internet'
p876
NsS'wp8-exclude-720p'
p877
NsS'lgtv-use-drm'
p878
NsS'symbian-platsecflags'
p879
NsS'ws8-description'
p880
NsS'blackberry-playbook-icon'
p881
NsS'copyright'
p882
NsS'ws8-distribution-pfx-password'
p883
NsS'win32-gles-directory'
p884
NsS'version'
p885
NsS'android-ext-min-sdk-version'
p886
(lp887
I4
asS'iphone-uiviewcontroller-based-status-bar'
p888
NsS'ws81-logo-image150x150'
p889
NsS'osx-signing-identity-app'
p890
NsS'tizen-project-url'
p891
NsS'symbian-icon-svg'
p892
NsS'android-aliasname'
p893
NsS'psp-dlgmanual'
p894
NsS'brew-uid'
p895
NsS'wp81-ext-native-only-dll'
p896
(lp897
sS'symbian-locationsupport'
p898
NsS'wp81-logo-image50x50'
p899
NsS'ws8-ext-managed-dll'
p900
(lp901
sS'nds-bannertitle-it'
p902
NsS'ws81-custom-manifest-fill'
p903
NsS'ws8-ext-sdk-manifest-part'
p904
(lp905
sS'uiq3-icon1-mask'
p906
NsS'winmobile-icon16'
p907
NsS'ws8-product-name'
p908
NsS'blackberry-cskpass'
p909
NsS'winmobile-start-menu-folder'
p910
NsS'brew-clsid'
p911
NsS'roku-requires-bluetooth'
p912
NsS'iphone-default-development-profile'
p913
NsS'ws8-ext-device-capabilities'
p914
(lp915
sS'blackberry-permissions-use-camera'
p916
NsS'ws81-extra-pri'
p917
(lp918
sS'iphone-prerendered-icon'
p919
NsS'iphone-appid'
p920
NsS'ws8-identity-name'
p921
NsS'tizen-dist2-CA-path'
p922
NsS'android-external-jars'
p923
(lp924
S'd:/marmalade/7.8/platform_libs/android/amazon-ads-android-sdk/third_party/lib/amazon-ads-5.4.235.jar'
p925
aS'd:/marmalade/7.8/extensions/s3eamazonads/lib/android/s3eAmazonAds.jar'
p926
asS'winmobile-icon64'
p927
NsS'blackberry-permissions-post-notification'
p928
NsS'winmobile-setup-dll'
p929
NsS'firefoxos-manifest'
p930
NsS'win8-winrt-extra-res'
p931
(lp932
sS'wp81-ext-sdk-manifest-part'
p933
(lp934
sS'symbian9-uid'
p935
NsS'iphone-icon-ipad-ios7'
p936
NsS'winmobile-trace-file'
p937
NsS'roku-splash-color'
p938
NsS'psp-appversion'
p939
NsS'android-java-target-version'
p940
NsS'ws8-publisher-id'
p941
NsS'android-supports-gl-texture'
p942
(lp943
sS'winmobile-png45'
p944
NsS'wp81-extra-res'
p945
(lp946
sS'android-storepass'
p947
NsS'nacl-icon-16X16'
p948
NsS'osx-signing-identity-inst'
p949
NsS'android-custom-activity'
p950
NsS'psp-discversion'
p951
NsS'wp81-ext-managed-dll'
p952
(lp953
sS'nacl-clear-user-data'
p954
NsS'psp-copyright'
p955
NsS'embed-icf'
p956
NsS'tizen-manifest'
p957
NsS'osx-icon'
p958
NsS'webos-appinfo'
p959
NsS'psp-dlghealthwarning'
p960
NsS'webos-appid'
p961
NsS'roku-icon-side-hd'
p962
NsS'iphone-icon-ipad-search-high-res-ios7'
p963
NsS'iphone-extra-plist'
p964
(lp965
sS'ws81-ext-sdk-manifest-part'
p966
(lp967
sS'loader_name_prefix'
p968
NsS'iphone-launch-dir'
p969
NsS'nds-titlename'
p970
NsS'ws81-logo-image50x50'
p971
NsS'wp81-custom-manifest'
p972
NsS'osx-entitlements-plist'
p973
NsS'psp-dlgicon0'
p974
NsS'winmobile-nouninstall'
p975
NsS'psp-discid'
p976
NsS'tizen-dist2-password'
p977
NsS'nacl-legacy-ext'
p978
NsS'ws8-ext-sdk-ref'
p979
(lp980
sS'iphone-extra-string'
p981
(lp982
sS'version-string'
p983
NsS'iphone-icon-high-res-ios7'
p984
NsS'ws8-certificate-end-date'
p985
NsS'nacl-skip-zip'
p986
NsS'tizen-so'
p987
(lp988
sS'wp8-tile-fliptemplate-small-image'
p989
NsS'playbook-authorid'
p990
NsS'iphone-signing-identity'
p991
NsS'roku-persist-quota'
p992
NsS'nds-bannertitle-fr'
p993
NsS'ws8-distribution-pfx'
p994
NsS'ws8-publisher-display-name'
p995
NsS'brew-icon-small'
p996
NsS'psp-dlgpic2'
p997
NsS'psp-dlgpic0'
p998
NsS'psp-pic0'
p999
NsS'psp-pic1'
p1000
NsS'win32-pref-windowtitle'
p1001
NsS'psp-icon0'
p1002
NsS'psp-icon1'
p1003
NsS'ws81-identity-name'
p1004
NsS'winmobile-icon'
p1005
NsS'iphone-no-splash'
p1006
NsS'iphone-splash'
p1007
NsS'iphone-app-fonts'
p1008
NsS'wp8-ext-native-dll'
p1009
(lp1010
sS'wp81-splash-screen-image480x800'
p1011
NsS'ws81-distribution-cer'
p1012
NsS'iphone-backgroundmode-audio'
p1013
NsS'uiq3-icon2'
p1014
NsS'uiq3-icon3'
p1015
NsS'uiq3-icon1'
p1016
NsS'uiq3-icon1-format'
p1017
NsS'ws8-logo-image50x50'
p1018
NsS'iphone-icon-ipad-search'
p1019
NsS'symbian-run-on-install'
p1020
NsS'wp81-description'
p1021
NsS'ws81-publisher-display-name'
p1022
NsS'firefoxos-xulrunner'
p1023
NsS'symbian-soundrecordsupport'
p1024
NsS'nds-bannertitle-sp'
p1025
NsS'psp-producer'
p1026
NsS'iphone-apple-wwdr-cert'
p1027
NsS'android-icon-nonstandard'
p1028
NsS'win32-pref-processtitle'
p1029
NsS'nds-bannertitle-hn'
p1030
NsS'tizen-dist2-key'
p1031
NsS'brew-depends'
p1032
NsS'ws81-custom-manifest'
p1033
NsS'iphone-allow-launch-rotation'
p1034
NsS'iphone-icon-ipad-search-ios7'
p1035
NsS'brew-icon-medium'
p1036
NsS'iphone-bundle-url-name'
p1037
NsS'wp8-tile-fliptemplate-large-front-image'
p1038
NsS'tizen-dist2-CA-root-path'
p1039
NsS'ws81-description'
p1040
NsS'uiq3-icon3-format'
p1041
NsS'ws81-logo-image30x30'
p1042
NsS'win8-phone-extra-res'
p1043
(lp1044
sS'iphone-signing-host'
p1045
NsS'tizen-icon'
p1046
NsS'osx-info-plist'
p1047
NsS'symbian-icon1-format'
p1048
NsS'ws81-distribution-pfx'
p1049
NsS'win32-aux-dll'
p1050
(lp1051
sS'blackberry-authorid'
p1052
NsS'ws81-publisher-id'
p1053
NsS'win8-store-extra-res'
p1054
(lp1055
sS'wp8-description'
p1056
NsS'iphone-link-opts'
p1057
(lp1058
S'-Fd:/marmalade/7.8/platform_libs/iphone/amazon-ads-ios-sdk/third_party/Ads -framework AmazonAd'
p1059
aS'-weak_framework AdSupport -weak_framework CoreLocation -weak_framework SystemConfiguration'
p1060
aS'-weak_framework CoreTelephony -weak_framework MediaPlayer'
p1061
aS'-weak_framework EventKit -weak_framework EventKitUI'
p1062
asS'ws81-ext-sdk-ref'
p1063
(lp1064
sS'roku-splash-min-time'
p1065
NsS'wp8-tile-fliptemplate-medium-front-image'
p1066
NsS'iphone-disable-launch-images'
p1067
NsS'android-sdk-platform-version'
p1068
NsS'provider'
p1069
NsS'playbook-keystore'
p1070
NsS'tizen-appid'
p1071
NsS'wp8-extra-res'
p1072
(lp1073
sS'symbian-osexecsupport'
p1074
NsS'android-install-location'
p1075
NsS'nds-privatesavedatasize'
p1076
NsS'iphone-disable-testflight'
p1077
NsS'playbook-storepass'
p1078
NsS'android-icon-ldpi'
p1079
NsS'manufacturer'
p1080
NsS'itunes-artwork'
p1081
NsS'iphone-extra-sections'
p1082
NsS'ws81-product-name'
p1083
NsS'ws81-ext-native-dll'
p1084
(lp1085
sS'ws8-extra-pri'
p1086
(lp1087
sS'wp8-product-id'
p1088
NsS'ws8-logo-image30x30'
p1089
NsS'wp8-ext-managed-dll'
p1090
(lp1091
sS'iphone-splashscreen-landscape'
p1092
NsS'symbian-maxheapsize'
p1093
NsS'android-extra-packages'
p1094
(lp1095
sS'priv-sign-key'
p1096
NsS'networking'
p1097
NsS'android-icon'
p1098
NsS'iphone-icon-settings'
p1099
NsS'nacl-manifest'
p1100
NsS'wp81-phone-product-id'
p1101
NsS'firefoxos-icon-60X60'
p1102
NsS'iphone-distribution-cert'
p1103
NsS'android_extra_strings'
p1104
NsS'nds-bannertitle-en'
p1105
NsS'blackberry-permissions-record-audio'
p1106
NsS'android-so'
p1107
(lp1108
S'd:/marmalade/7.8/extensions/s3eamazonads/lib/android/libs3eAmazonAds.so'
p1109
asS'wp8-higher-mem'
p1110
NsS'wp8-ext-sdk-ref'
p1111
(lp1112
sS'wp8-fast-resume-mode'
p1113
NsS'roku-splash-screen-hd'
p1114
NsS'iphone-bundle-url-schemes'
p1115
NsS'roku-screensaver-private'
p1116
NsS'osx-extra-res'
p1117
(lp1118
sS'ws81-extra-res'
p1119
(lp1120
sS'playbook-icon'
p1121
NsS'uid'
p1122
NsS'pkguid-as-uid'
p1123
NsS'wp81-ext-native-dll'
p1124
(lp1125
sS'tizen-dist1-password'
p1126
NsS'roku-screensaver-title'
p1127
NsS'osx-minimum-osx-version'
p1128
NsS'symbian-cert'
p1129
NsS'iphone-icon'
p1130
NsS'ws81-ext-capabilities'
p1131
(lp1132
sS'ws8-distribution-cer'
p1133
NsS'playbook-access-shared'
p1134
NsS'iphone-icon-ipad-high-res-ios7'
p1135
NsS'iphone-link-libs'
p1136
(lp1137
sS'wp8-exclude-wvga'
p1138
NsS'assets'
p1139
NsS'wp8-tile-fliptemplate-large-back-image'
p1140
NsS'wp8-custom-manifest-fill'
p1141
NsS'pub-sign-key'
p1142
NsS'android-extra-strings'
p1143
(lp1144
sS'tizen-author-CA-path'
p1145
Nssg362
g634
sbssS'platform'
p1146
S'S3E'
p1147
sg72
S'1.0'
p1148
sS'arcade_platform'
p1149
g4
sS'extensions'
p1150
(dp1151
sS'source_groups_tree'
p1152
(dp1153
S'(libpng)'
p1154
(dp1155
S'd:/marmalade/7.8/modules/third_party/libpng/libpng.mkf'
p1156
(lp1157
I1
a(dp1158
asS'h'
p1159
(dp1160
S'd:/marmalade/7.8/modules/third_party/libpng/h/pngconf.h'
p1161
(lp1162
I1
a(dp1163
asS'd:/marmalade/7.8/modules/third_party/libpng/h/png.h'
p1164
(lp1165
I1
ag1163
asssS'(amazon-ads-android-sdk)'
p1166
(dp1167
S'd:/marmalade/7.8/platform_libs/android/amazon-ads-android-sdk/amazon-ads-android-sdk.mkf'
p1168
(lp1169
I1
a(dp1170
assS'(tiniconv)'
p1171
(dp1172
S'd:/marmalade/7.8/modules/third_party/tiniconv/source/tiniconv.h'
p1173
(lp1174
I1
a(dp1175
asS'd:/marmalade/7.8/modules/third_party/tiniconv/tiniconv.mkf'
p1176
(lp1177
I1
a(dp1178
asS'd:/marmalade/7.8/modules/third_party/tiniconv/source/tiniconv_int.h'
p1179
(lp1180
I1
ag1175
assS'(amazon-ads-ios-sdk)'
p1181
(dp1182
S'd:/marmalade/7.8/platform_libs/iphone/amazon-ads-ios-sdk/amazon-ads-ios-sdk.mkf'
p1183
(lp1184
I1
a(dp1185
assS'(SoundEngine)'
p1186
(dp1187
S'd:/marm/stage2/modules/soundengine/source/IwSoundInst.cpp'
p1188
(lp1189
I1
a(dp1190
asS'd:/marm/stage2/modules/soundengine/source/IwSoundPCM.cpp'
p1191
(lp1192
I1
ag1190
asS'd:/marm/stage2/modules/soundengine/h/IwSoundADPCM.h'
p1193
(lp1194
I1
ag1190
asS'd:/marm/stage2/modules/soundengine/source/IwSoundWAV.cpp'
p1195
(lp1196
I1
ag1190
asS'd:/marm/stage2/modules/soundengine/source/IwSoundData.cpp'
p1197
(lp1198
I1
ag1190
asS'd:/marm/stage2/modules/soundengine/h/IwSoundParams.h'
p1199
(lp1200
I1
ag1190
asS'd:/marm/stage2/modules/soundengine/h/IwSoundData.h'
p1201
(lp1202
I1
ag1190
asS'Docs'
p1203
(dp1204
S'd:/marm/stage2/modules/soundengine/docs/iwsound.config.txt'
p1205
(lp1206
I1
ag1190
assS'd:/marm/stage2/modules/soundengine/h/IwSoundWAV.h'
p1207
(lp1208
I1
ag1190
asS'd:/marm/stage2/modules/soundengine/h/IwSound.h'
p1209
(lp1210
I1
ag1190
asS'd:/marm/stage2/modules/soundengine/source/IwSoundManager.cpp'
p1211
(lp1212
I1
ag1190
asS'd:/marm/stage2/modules/soundengine/source/IwSoundParams.cpp'
p1213
(lp1214
I1
ag1190
asS'd:/marm/stage2/modules/soundengine/source/IwSoundSpec.cpp'
p1215
(lp1216
I1
ag1190
asS'd:/marm/stage2/modules/soundengine/source/IwResHandlerWAV.cpp'
p1217
(lp1218
I1
ag1190
asS'd:/marm/stage2/modules/soundengine/source/IwSoundGroup.cpp'
p1219
(lp1220
I1
ag1190
asS'd:/marm/stage2/modules/soundengine/soundengine.mkf'
p1221
(lp1222
I1
a(dp1223
asS'd:/marm/stage2/modules/soundengine/source/IwSoundADPCM.cpp'
p1224
(lp1225
I1
ag1190
asS'd:/marm/stage2/modules/soundengine/h/IwSoundInst.h'
p1226
(lp1227
I1
ag1190
asS'd:/marm/stage2/modules/soundengine/h/IwSoundManager.h'
p1228
(lp1229
I1
ag1190
asS'd:/marm/stage2/modules/soundengine/h/IwSoundGroup.h'
p1230
(lp1231
I1
ag1190
asS'd:/marm/stage2/modules/soundengine/h/IwSoundSpec.h'
p1232
(lp1233
I1
ag1190
asS'd:/marm/stage2/modules/soundengine/h/IwSoundPCM.h'
p1234
(lp1235
I1
ag1190
asS'd:/marm/stage2/modules/soundengine/h/IwResHandlerWAV.h'
p1236
(lp1237
I1
ag1190
assS'source'
p1238
(dp1239
S'd:/marm/Stage2/source/main.cpp'
p1240
(lp1241
I1
a(dp1242
asS'd:/marm/Stage2/source/audio.cpp'
p1243
(lp1244
I1
ag1242
asS'd:/marm/Stage2/source/audio.h'
p1245
(lp1246
I1
ag1242
asS'd:/marm/Stage2/source/input.cpp'
p1247
(lp1248
I1
ag1242
asS'd:/marm/Stage2/source/input.h'
p1249
(lp1250
I1
ag1242
assS'Extensions'
p1251
(dp1252
S's3eAmazonAds'
p1253
(dp1254
S'interface'
p1255
(dp1256
S'd:/marmalade/7.8/extensions/s3eamazonads/interface/s3eAmazonAds.defines.txt'
p1257
(lp1258
I1
a(dp1259
asS'd:/marmalade/7.8/extensions/s3eamazonads/interface/s3eAmazonAds_interface.cpp'
p1260
(lp1261
I1
ag1259
assS'd:/marmalade/7.8/extensions/s3eamazonads/s3eamazonads.mkf'
p1262
(lp1263
I1
a(dp1264
asS'd:/marmalade/7.8/extensions/s3eamazonads/h/s3eAmazonAds.h'
p1265
(lp1266
I1
ag1259
assS'PVRTexTool'
p1267
(dp1268
S'interface'
p1269
(dp1270
S'd:/marmalade/7.8/extensions/pvrtextool/interface/PVRTexTool.defines.txt'
p1271
(lp1272
I1
a(dp1273
asS'd:/marmalade/7.8/extensions/pvrtextool/interface/PVRTexTool_interface.cpp'
p1274
(lp1275
I1
ag1273
assS'd:/marmalade/7.8/extensions/pvrtextool/h/PVRTexTool.h'
p1276
(lp1277
I1
ag1273
asS'd:/marmalade/7.8/extensions/pvrtextool/pvrtextool.mkf'
p1278
(lp1279
I1
a(dp1280
asssS'(s3e-default)'
p1281
(dp1282
S'd:/marmalade/7.8/s3e/s3e-default.mkf'
p1283
(lp1284
I1
a(dp1285
assS"'Marmalade Studio'"
p1286
(dp1287
S'iwgl'
p1288
(dp1289
S'd:/marmalade/7.8/modules/iwgl/h/IwGL.h'
p1290
(lp1291
I1
a(dp1292
asS'd:/marmalade/7.8/modules/iwgl/docs/iwgl.config.txt'
p1293
(lp1294
I1
ag1292
asS'd:/marmalade/7.8/modules/iwgl/h/IwGLExt.h'
p1295
(lp1296
I1
ag1292
asS'd:/marmalade/7.8/modules/iwgl/iwgl.mkf'
p1297
(lp1298
I1
a(dp1299
assS'iw2d'
p1300
(dp1301
S'd:/marmalade/7.8/modules/iw2d/docs/iw2d.config.txt'
p1302
(lp1303
I1
a(dp1304
asS'd:/marmalade/7.8/modules/iw2d/h/Iw2D.h'
p1305
(lp1306
I1
ag1304
asS'd:/marmalade/7.8/modules/iw2d/docs/iw2d_public.defines.txt'
p1307
(lp1308
I1
ag1304
asS'd:/marmalade/7.8/modules/iw2d/iw2d.mkf'
p1309
(lp1310
I1
a(dp1311
assS'iwgxfont'
p1312
(dp1313
S'd:/marmalade/7.8/modules/iwgxfont/h/IwGxFontContainer.h'
p1314
(lp1315
I1
a(dp1316
asS'd:/marmalade/7.8/modules/iwgxfont/h/IwGxFont.h'
p1317
(lp1318
I1
ag1316
asS'd:/marmalade/7.8/modules/iwgxfont/docs/iwgxfont_public.defines.txt'
p1319
(lp1320
I1
ag1316
asS'd:/marmalade/7.8/modules/iwgxfont/h/IwGxFontTypes.h'
p1321
(lp1322
I1
ag1316
asS'd:/marmalade/7.8/modules/iwgxfont/docs/iwgxfont.config.txt'
p1323
(lp1324
I1
ag1316
asS'd:/marmalade/7.8/modules/iwgxfont/h/IwGxFontPreparedData.h'
p1325
(lp1326
I1
ag1316
asS'd:/marmalade/7.8/modules/iwgxfont/h/IwGxFontState.h'
p1327
(lp1328
I1
ag1316
asS'd:/marmalade/7.8/modules/iwgxfont/h/IwGxFontGlyph.h'
p1329
(lp1330
I1
ag1316
asS'd:/marmalade/7.8/modules/iwgxfont/iwgxfont.mkf'
p1331
(lp1332
I1
a(dp1333
assS'iwgeom'
p1334
(dp1335
S'd:/marmalade/7.8/modules/iwgeom/h/IwGeomMat2D.h.tpl'
p1336
(lp1337
I1
a(dp1338
asS'd:/marmalade/7.8/modules/iwgeom/h/IwGeomQuat.h'
p1339
(lp1340
I1
ag1338
asS'd:/marmalade/7.8/modules/iwgeom/h/IwGeomIntersect.h'
p1341
(lp1342
I1
ag1338
asS'd:/marmalade/7.8/modules/iwgeom/h/IwGeomVec.h.tpl'
p1343
(lp1344
I1
ag1338
asS'd:/marmalade/7.8/modules/iwgeom/h/IwGeomLegacy.h'
p1345
(lp1346
I1
ag1338
asS'd:/marmalade/7.8/modules/iwgeom/h/IwGeomFVec2.h'
p1347
(lp1348
I1
ag1338
asS'd:/marmalade/7.8/modules/iwgeom/h/IwGeomBBox.h'
p1349
(lp1350
I1
ag1338
asS'd:/marmalade/7.8/modules/iwgeom/h/IwGeomFVec3.h'
p1351
(lp1352
I1
ag1338
asS'd:/marmalade/7.8/modules/iwgeom/h/IwGeomVec4.h'
p1353
(lp1354
I1
ag1338
asS'd:/marmalade/7.8/modules/iwgeom/h/IwGeomFMat2D.h'
p1355
(lp1356
I1
ag1338
asS'd:/marmalade/7.8/modules/iwgeom/h/IwGeomMat.h'
p1357
(lp1358
I1
ag1338
asS'd:/marmalade/7.8/modules/iwgeom/h/IwGeomFQuat.h'
p1359
(lp1360
I1
ag1338
asS'd:/marmalade/7.8/modules/iwgeom/h/IwGeomSVec3.h'
p1361
(lp1362
I1
ag1338
asS'd:/marmalade/7.8/modules/iwgeom/h/IwGeomSVec2.h'
p1363
(lp1364
I1
ag1338
asS'd:/marmalade/7.8/modules/iwgeom/h/IwGeomSQuat.h'
p1365
(lp1366
I1
ag1338
asS'd:/marmalade/7.8/modules/iwgeom/h/IwGeomVec3.h'
p1367
(lp1368
I1
ag1338
asS'd:/marmalade/7.8/modules/iwgeom/h/IwGeomFMat.h'
p1369
(lp1370
I1
ag1338
asS'd:/marmalade/7.8/modules/iwgeom/h/IwGeomFVec4.h'
p1371
(lp1372
I1
ag1338
asS'd:/marmalade/7.8/modules/iwgeom/h/IwGeomSVec4.h'
p1373
(lp1374
I1
ag1338
asS'd:/marmalade/7.8/modules/iwgeom/h/IwGeomMat.h.tpl'
p1375
(lp1376
I1
ag1338
asS'd:/marmalade/7.8/modules/iwgeom/docs/iwgeom.config.txt'
p1377
(lp1378
I1
ag1338
asS'd:/marmalade/7.8/modules/iwgeom/h/IwGeomSphere.h'
p1379
(lp1380
I1
ag1338
asS'd:/marmalade/7.8/modules/iwgeom/h/IwGeom.h'
p1381
(lp1382
I1
ag1338
asS'd:/marmalade/7.8/modules/iwgeom/h/IwGeomVec.h'
p1383
(lp1384
I1
ag1338
asS'd:/marmalade/7.8/modules/iwgeom/h/IwGeomFSphere.h'
p1385
(lp1386
I1
ag1338
asS'd:/marmalade/7.8/modules/iwgeom/h/IwGeomFBBox.h'
p1387
(lp1388
I1
ag1338
asS'd:/marmalade/7.8/modules/iwgeom/h/IwGeomQuat.h.tpl'
p1389
(lp1390
I1
ag1338
asS'd:/marmalade/7.8/modules/iwgeom/h/IwGeomVec2.h'
p1391
(lp1392
I1
ag1338
asS'd:/marmalade/7.8/modules/iwgeom/h/IwGeomCore.h'
p1393
(lp1394
I1
ag1338
asS'd:/marmalade/7.8/modules/iwgeom/h/IwGeomFPlane.h'
p1395
(lp1396
I1
ag1338
asS'd:/marmalade/7.8/modules/iwgeom/h/IwGeomPlane.h'
p1397
(lp1398
I1
ag1338
asS'd:/marmalade/7.8/modules/iwgeom/iwgeom.mkf'
p1399
(lp1400
I1
a(dp1401
asS'd:/marmalade/7.8/modules/iwgeom/h/IwGeomSqrt.h'
p1402
(lp1403
I1
ag1338
asS'd:/marmalade/7.8/modules/iwgeom/h/IwGeomMat2D.h'
p1404
(lp1405
I1
ag1338
asS'd:/marmalade/7.8/modules/iwgeom/h/IwGeomMenu.h'
p1406
(lp1407
I1
ag1338
asS'd:/marmalade/7.8/modules/iwgeom/h/IwGeomFIntersect.h'
p1408
(lp1409
I1
ag1338
assS'iwresmanager'
p1410
(dp1411
S'd:/marmalade/7.8/modules/iwresmanager/h/IwResHandlerITX.h'
p1412
(lp1413
I1
a(dp1414
asS'd:/marmalade/7.8/modules/iwresmanager/h/IwResHandlerImage.h'
p1415
(lp1416
I1
ag1414
asS'd:/marmalade/7.8/modules/iwresmanager/h/IwResManager.h'
p1417
(lp1418
I1
ag1414
asS'd:/marmalade/7.8/modules/iwresmanager/docs/iwresmanager.config.txt'
p1419
(lp1420
I1
ag1414
asS'd:/marmalade/7.8/modules/iwresmanager/h/IwResGroup.h'
p1421
(lp1422
I1
ag1414
asS'd:/marmalade/7.8/modules/iwresmanager/h/IwResSerialise.h'
p1423
(lp1424
I1
ag1414
asS'd:/marmalade/7.8/modules/iwresmanager/iwresmanager.mkf'
p1425
(lp1426
I1
a(dp1427
asS'd:/marmalade/7.8/modules/iwresmanager/h/IwResHandler.h'
p1428
(lp1429
I1
ag1414
asS'd:/marmalade/7.8/modules/iwresmanager/h/IwResManagerClass.h'
p1430
(lp1431
I1
ag1414
asS'd:/marmalade/7.8/modules/iwresmanager/h/IwResHandlerGROUP.h'
p1432
(lp1433
I1
ag1414
assS'iwgx'
p1434
(dp1435
S'd:/marmalade/7.8/modules/iwgx/h/IwFColour.h'
p1436
(lp1437
I1
a(dp1438
asS'd:/marmalade/7.8/modules/iwgx/h/IwGxFuncTable.h'
p1439
(lp1440
I1
ag1438
asS'd:/marmalade/7.8/modules/iwgx/h/IwGx.h'
p1441
(lp1442
I1
ag1438
asS'd:/marmalade/7.8/modules/iwgx/h/IwGxState.h'
p1443
(lp1444
I1
ag1438
asS'd:/marmalade/7.8/modules/iwgx/h/IwGxError.h'
p1445
(lp1446
I1
ag1438
asS'd:/marmalade/7.8/modules/iwgx/h/IwMaterial.h'
p1447
(lp1448
I1
ag1438
asS'd:/marmalade/7.8/modules/iwgx/h/IwGxMetrics.h'
p1449
(lp1450
I1
ag1438
asS'd:/marmalade/7.8/modules/iwgx/docs/iwgx_public.defines.txt'
p1451
(lp1452
I1
ag1438
asS'd:/marmalade/7.8/modules/iwgx/h/IwResHandlerMTL.h'
p1453
(lp1454
I1
ag1438
asS'd:/marmalade/7.8/modules/iwgx/h/IwGxDebug.h'
p1455
(lp1456
I1
ag1438
asS'd:/marmalade/7.8/modules/iwgx/h/IwDebugPrim.h'
p1457
(lp1458
I1
ag1438
asS'd:/marmalade/7.8/modules/iwgx/h/IwTPage.h'
p1459
(lp1460
I1
ag1438
asS'd:/marmalade/7.8/modules/iwgx/h/IwGxSurface.h'
p1461
(lp1462
I1
ag1438
asS'd:/marmalade/7.8/modules/iwgx/iwgx.mkf'
p1463
(lp1464
I1
a(dp1465
asS'd:/marmalade/7.8/modules/iwgx/h/IwClip.h'
p1466
(lp1467
I1
ag1438
asS'd:/marmalade/7.8/modules/iwgx/h/IwClip.inl'
p1468
(lp1469
I1
ag1438
asS'd:/marmalade/7.8/modules/iwgx/h/IwColour.h'
p1470
(lp1471
I1
ag1438
asS'd:/marmalade/7.8/modules/iwgx/h/IwMatAnim.h'
p1472
(lp1473
I1
ag1438
asS'd:/marmalade/7.8/modules/iwgx/h/IwGxShaderTechnique.h'
p1474
(lp1475
I1
ag1438
asS'd:/marmalade/7.8/modules/iwgx/h/IwGxTypes.h'
p1476
(lp1477
I1
ag1438
asS'd:/marmalade/7.8/modules/iwgx/h/IwGxStream.h'
p1478
(lp1479
I1
ag1438
asS'd:/marmalade/7.8/modules/iwgx/docs/iwgx.config.txt'
p1480
(lp1481
I1
ag1438
asS'd:/marmalade/7.8/modules/iwgx/h/IwTexture.h'
p1482
(lp1483
I1
ag1438
asS'd:/marmalade/7.8/modules/iwgx/h/IwGxPrint.h'
p1484
(lp1485
I1
ag1438
asS'd:/marmalade/7.8/modules/iwgx/h/IwGxTransformSW.h'
p1486
(lp1487
I1
ag1438
assS'iwutil'
p1488
(dp1489
S'd:/marmalade/7.8/modules/iwutil/h/IwSerialise.h'
p1490
(lp1491
I1
a(dp1492
asS'd:/marmalade/7.8/modules/iwutil/h/IwImage.h'
p1493
(lp1494
I1
ag1492
asS'd:/marmalade/7.8/modules/iwutil/h/IwVariableBitField.h'
p1495
(lp1496
I1
ag1492
asS'd:/marmalade/7.8/modules/iwutil/h/IwUncopyable.h'
p1497
(lp1498
I1
ag1492
asS'd:/marmalade/7.8/modules/iwutil/h/IwUTF8.h'
p1499
(lp1500
I1
ag1492
asS'd:/marmalade/7.8/modules/iwutil/h/IwManaged.h'
p1501
(lp1502
I1
ag1492
asS'd:/marmalade/7.8/modules/iwutil/h/IwMath.h'
p1503
(lp1504
I1
ag1492
asS'd:/marmalade/7.8/modules/iwutil/h/IwImageHelper.h'
p1505
(lp1506
I1
ag1492
asS'd:/marmalade/7.8/modules/iwutil/h/IwResource.h'
p1507
(lp1508
I1
ag1492
asS'd:/marmalade/7.8/modules/iwutil/h/IwEvent.h'
p1509
(lp1510
I1
ag1492
asS'd:/marmalade/7.8/modules/iwutil/h/IwRandom.h'
p1511
(lp1512
I1
ag1492
asS'd:/marmalade/7.8/modules/iwutil/h/IwOptimiseSpeed.h'
p1513
(lp1514
I1
ag1492
asS'd:/marmalade/7.8/modules/iwutil/h/IwArray.h'
p1515
(lp1516
I1
ag1492
asS'd:/marmalade/7.8/modules/iwutil/h/IwKeymap.h'
p1517
(lp1518
I1
ag1492
asS'd:/marmalade/7.8/modules/iwutil/h/IwCore.h'
p1519
(lp1520
I1
ag1492
asS'd:/marmalade/7.8/modules/iwutil/h/IwTextParser.h'
p1521
(lp1522
I1
ag1492
asS'd:/marmalade/7.8/modules/iwutil/h/IwTextParseable.h'
p1523
(lp1524
I1
ag1492
asS'd:/marmalade/7.8/modules/iwutil/h/IwManagedList.h'
p1525
(lp1526
I1
ag1492
asS'd:/marmalade/7.8/modules/iwutil/h/IwMenu.h'
p1527
(lp1528
I1
ag1492
asS'd:/marmalade/7.8/modules/iwutil/h/IwSingleton.h'
p1529
(lp1530
I1
ag1492
asS'd:/marmalade/7.8/modules/iwutil/h/IwOptimiseARM.h'
p1531
(lp1532
I1
ag1492
asS'd:/marmalade/7.8/modules/iwutil/h/IwString.h'
p1533
(lp1534
I1
ag1492
asS'd:/marmalade/7.8/modules/iwutil/h/IwCopyingPtr.h'
p1535
(lp1536
I1
ag1492
asS'd:/marmalade/7.8/modules/iwutil/h/IwList.h'
p1537
(lp1538
I1
ag1492
asS'd:/marmalade/7.8/modules/iwutil/h/IwChar.h'
p1539
(lp1540
I1
ag1492
asS'd:/marmalade/7.8/modules/iwutil/h/IwAutoFile.h'
p1541
(lp1542
I1
ag1492
asS'd:/marmalade/7.8/modules/iwutil/h/IwFile.h'
p1543
(lp1544
I1
ag1492
asS'd:/marmalade/7.8/modules/iwutil/h/IwDivTable.h'
p1545
(lp1546
I1
ag1492
asS'd:/marmalade/7.8/modules/iwutil/h/IwDebug.h'
p1547
(lp1548
I1
ag1492
asS'd:/marmalade/7.8/modules/iwutil/h/IwOptimiseSize.h'
p1549
(lp1550
I1
ag1492
asS'd:/marmalade/7.8/modules/iwutil/h/IwAllocator.h'
p1551
(lp1552
I1
ag1492
asS'd:/marmalade/7.8/modules/iwutil/h/IwUtil.h'
p1553
(lp1554
I1
ag1492
asS'd:/marmalade/7.8/modules/iwutil/h/IwMemory.h'
p1555
(lp1556
I1
ag1492
asS'd:/marmalade/7.8/modules/iwutil/h/IwMemBucketHelpers.h'
p1557
(lp1558
I1
ag1492
asS'd:/marmalade/7.8/modules/iwutil/docs/iwutil.config.txt'
p1559
(lp1560
I1
ag1492
asS'd:/marmalade/7.8/modules/iwutil/h/IwDivide.h'
p1561
(lp1562
I1
ag1492
asS'd:/marmalade/7.8/modules/iwutil/h/IwFibre.h'
p1563
(lp1564
I1
ag1492
asS'd:/marmalade/7.8/modules/iwutil/h/IwMemManagerDL.h'
p1565
(lp1566
I1
ag1492
asS'd:/marmalade/7.8/modules/iwutil/h/IwPath.h'
p1567
(lp1568
I1
ag1492
asS'd:/marmalade/7.8/modules/iwutil/h/IwBuffer.h'
p1569
(lp1570
I1
ag1492
asS'd:/marmalade/7.8/modules/iwutil/h/IwOptimiseThumb.h'
p1571
(lp1572
I1
ag1492
asS'd:/marmalade/7.8/modules/iwutil/h/IwMemBucket.h'
p1573
(lp1574
I1
ag1492
asS'd:/marmalade/7.8/modules/iwutil/h/IwProfileMenu.h'
p1575
(lp1576
I1
ag1492
asS'd:/marmalade/7.8/modules/iwutil/h/IwUtilInitTerm.h'
p1577
(lp1578
I1
ag1492
asS'd:/marmalade/7.8/modules/iwutil/h/IwRuntime.h'
p1579
(lp1580
I1
ag1492
asS'd:/marmalade/7.8/modules/iwutil/h/IwClassFactory.h'
p1581
(lp1582
I1
ag1492
asS'd:/marmalade/7.8/modules/iwutil/iwutil.mkf'
p1583
(lp1584
I1
a(dp1585
asS'd:/marmalade/7.8/modules/iwutil/h/IwHashString.h'
p1586
(lp1587
I1
ag1492
asS'd:/marmalade/7.8/modules/iwutil/h/IwTypes.h'
p1588
(lp1589
I1
ag1492
asS'd:/marmalade/7.8/modules/iwutil/h/IwTextParserITX.h'
p1590
(lp1591
I1
ag1492
asssS'(zlib)'
p1592
(dp1593
g1159
(dp1594
S'd:/marmalade/7.8/modules/third_party/zlib/h/zlib.h'
p1595
(lp1596
I1
a(dp1597
asS'd:/marmalade/7.8/modules/third_party/zlib/h/zconf.h'
p1598
(lp1599
I1
ag1597
assS'd:/marmalade/7.8/modules/third_party/zlib/zlib.mkf'
p1600
(lp1601
I1
a(dp1602
assS'(libjpeg)'
p1603
(dp1604
g1159
(dp1605
S'd:/marmalade/7.8/modules/third_party/libjpeg/h/jconfig.h'
p1606
(lp1607
I1
a(dp1608
asS'd:/marmalade/7.8/modules/third_party/libjpeg/h/jmorecfg.h'
p1609
(lp1610
I1
ag1608
asS'd:/marmalade/7.8/modules/third_party/libjpeg/h/jdct.h'
p1611
(lp1612
I1
ag1608
asS'd:/marmalade/7.8/modules/third_party/libjpeg/h/jpegint.h'
p1613
(lp1614
I1
ag1608
asS'd:/marmalade/7.8/modules/third_party/libjpeg/h/jerror.h'
p1615
(lp1616
I1
ag1608
asS'd:/marmalade/7.8/modules/third_party/libjpeg/h/jdhuff.h'
p1617
(lp1618
I1
ag1608
asS'd:/marmalade/7.8/modules/third_party/libjpeg/h/jinclude.h'
p1619
(lp1620
I1
ag1608
asS'd:/marmalade/7.8/modules/third_party/libjpeg/h/cdjpeg.h'
p1621
(lp1622
I1
ag1608
asS'd:/marmalade/7.8/modules/third_party/libjpeg/h/cderror.h'
p1623
(lp1624
I1
ag1608
asS'd:/marmalade/7.8/modules/third_party/libjpeg/h/jversion.h'
p1625
(lp1626
I1
ag1608
asS'd:/marmalade/7.8/modules/third_party/libjpeg/h/jpeglib.h'
p1627
(lp1628
I1
ag1608
asS'd:/marmalade/7.8/modules/third_party/libjpeg/h/jmemsys.h'
p1629
(lp1630
I1
ag1608
asS'd:/marmalade/7.8/modules/third_party/libjpeg/h/transupp.h'
p1631
(lp1632
I1
ag1608
asS'd:/marmalade/7.8/modules/third_party/libjpeg/h/jchuff.h'
p1633
(lp1634
I1
ag1608
assS'd:/marmalade/7.8/modules/third_party/libjpeg/libjpeg.mkf'
p1635
(lp1636
I1
a(dp1637
asssS'files'
p1638
(dp1639
S'IwGxFontPreparedData.h'
p1640
g336
(cmkb_main
File
p1641
g338
Ntp1642
Rp1643
(dp1644
S'flags'
p1645
g1316
sS'group'
p1646
(lp1647
S"'Marmalade Studio'"
p1648
ag1312
asg362
g1325
sbsS'iterator'
p1649
g336
(g1641
g338
Ntp1650
Rp1651
(dp1652
g1645
(dp1653
sg1646
(lp1654
S"'Marmalade System (S3E)'"
p1655
aS'stdc headers'
p1656
aS'c++'
p1657
asg362
S'd:/marmalade/7.8/s3e/h/std/c++/iterator'
p1658
sbsS'IwGL.h'
p1659
g336
(g1641
g338
Ntp1660
Rp1661
(dp1662
g1645
g1292
sg1646
(lp1663
S"'Marmalade Studio'"
p1664
ag1288
asg362
g1290
sbsS's3e.h'
p1665
g336
(g1641
g338
Ntp1666
Rp1667
(dp1668
g1645
g1653
sg1646
(lp1669
g1655
asg362
S'd:/marmalade/7.8/s3e/h/s3e.h'
p1670
sbsS'errno.h'
p1671
g336
(g1641
g338
Ntp1672
Rp1673
(dp1674
g1645
g1653
sg1646
(lp1675
g1655
aS'stdc headers'
p1676
asg362
S'd:/marmalade/7.8/s3e/h/std/errno.h'
p1677
sbsS'IwSingleton.h'
p1678
g336
(g1641
g338
Ntp1679
Rp1680
(dp1681
g1645
g1492
sg1646
(lp1682
S"'Marmalade Studio'"
p1683
ag1488
asg362
g1529
sbsS'dlfcn.h'
p1684
g336
(g1641
g338
Ntp1685
Rp1686
(dp1687
g1645
g1653
sg1646
g1675
sg362
S'd:/marmalade/7.8/s3e/h/std/dlfcn.h'
p1688
sbsS'IwSoundWAV.cpp'
p1689
g336
(g1641
g338
Ntp1690
Rp1691
(dp1692
g1645
g1190
sg1646
(lp1693
g1186
asg362
g1195
sbsS'sched.h'
p1694
g336
(g1641
g338
Ntp1695
Rp1696
(dp1697
g1645
g1653
sg1646
g1675
sg362
S'd:/marmalade/7.8/s3e/h/std/sched.h'
p1698
sbsS'IwSoundPCM.h'
p1699
g336
(g1641
g338
Ntp1700
Rp1701
(dp1702
g1645
g1190
sg1646
g1693
sg362
g1234
sbsS'IwGeomFMat2D.h'
p1703
g336
(g1641
g338
Ntp1704
Rp1705
(dp1706
g1645
g1338
sg1646
(lp1707
S"'Marmalade Studio'"
p1708
ag1334
asg362
g1355
sbsS'cassert'
p1709
g336
(g1641
g338
Ntp1710
Rp1711
(dp1712
g1645
g1653
sg1646
g1654
sg362
S'd:/marmalade/7.8/s3e/h/std/c++/cassert'
p1713
sbsS'grp.h'
p1714
g336
(g1641
g338
Ntp1715
Rp1716
(dp1717
g1645
g1653
sg1646
g1675
sg362
S'd:/marmalade/7.8/s3e/h/std/grp.h'
p1718
sbsS'list'
p1719
g336
(g1641
g338
Ntp1720
Rp1721
(dp1722
g1645
g1653
sg1646
g1654
sg362
S'd:/marmalade/7.8/s3e/h/std/c++/list'
p1723
sbsS'IwSoundSpec.cpp'
p1724
g336
(g1641
g338
Ntp1725
Rp1726
(dp1727
g1645
g1190
sg1646
g1693
sg362
g1215
sbsS'IwGeomMat.h.tpl'
p1728
g336
(g1641
g338
Ntp1729
Rp1730
(dp1731
g1645
g1338
sg1646
g1707
sg362
g1375
sbsS'istream'
p1732
g336
(g1641
g338
Ntp1733
Rp1734
(dp1735
g1645
g1653
sg1646
g1654
sg362
S'd:/marmalade/7.8/s3e/h/std/c++/istream'
p1736
sbsS'jpeglib.h'
p1737
g336
(g1641
g338
Ntp1738
Rp1739
(dp1740
g1645
g1608
sg1646
(lp1741
g1603
ag1159
asg362
g1627
sbsS'iw2d_public.defines.txt'
p1742
g336
(g1641
g338
Ntp1743
Rp1744
(dp1745
g1645
g1304
sg1646
(lp1746
S"'Marmalade Studio'"
p1747
ag1300
asg362
g1307
sbsS'iostream.h'
p1748
g336
(g1641
g338
Ntp1749
Rp1750
(dp1751
g1645
g1653
sg1646
g1654
sg362
S'd:/marmalade/7.8/s3e/h/std/c++/iostream.h'
p1752
sbsS'IwSoundADPCM.h'
p1753
g336
(g1641
g338
Ntp1754
Rp1755
(dp1756
g1645
g1190
sg1646
g1693
sg362
g1193
sbsS'string'
p1757
g336
(g1641
g338
Ntp1758
Rp1759
(dp1760
g1645
g1653
sg1646
g1654
sg362
S'd:/marmalade/7.8/s3e/h/std/c++/string'
p1761
sbsS'IwMemory.h'
p1762
g336
(g1641
g338
Ntp1763
Rp1764
(dp1765
g1645
g1492
sg1646
g1682
sg362
g1555
sbsS'IwGeomPlane.h'
p1766
g336
(g1641
g338
Ntp1767
Rp1768
(dp1769
g1645
g1338
sg1646
g1707
sg362
g1397
sbsS'iw2d.config.txt'
p1770
g336
(g1641
g338
Ntp1771
Rp1772
(dp1773
g1645
g1304
sg1646
g1746
sg362
g1302
sbsS'iomanip'
p1774
g336
(g1641
g338
Ntp1775
Rp1776
(dp1777
g1645
g1653
sg1646
g1654
sg362
S'd:/marmalade/7.8/s3e/h/std/c++/iomanip'
p1778
sbsS'iwgeom.mkf'
p1779
g336
(g1641
g338
Ntp1780
Rp1781
(dp1782
g1645
g1401
sg1646
g1707
sg362
g1399
sbsS'IwGxError.h'
p1783
g336
(g1641
g338
Ntp1784
Rp1785
(dp1786
g1645
g1438
sg1646
(lp1787
S"'Marmalade Studio'"
p1788
ag1434
asg362
g1445
sbsS'IwGeom.h'
p1789
g336
(g1641
g338
Ntp1790
Rp1791
(dp1792
g1645
g1338
sg1646
g1707
sg362
g1381
sbsS'IwGeomVec4.h'
p1793
g336
(g1641
g338
Ntp1794
Rp1795
(dp1796
g1645
g1338
sg1646
g1707
sg362
g1353
sbsS'dir.h'
p1797
g336
(g1641
g338
Ntp1798
Rp1799
(dp1800
g1645
g1653
sg1646
(lp1801
g1655
aS'stdc headers'
p1802
aS'sys'
p1803
asg362
S'd:/marmalade/7.8/s3e/h/std/sys/dir.h'
p1804
sbsS'locale.h'
p1805
g336
(g1641
g338
Ntp1806
Rp1807
(dp1808
g1645
g1653
sg1646
g1675
sg362
S'd:/marmalade/7.8/s3e/h/std/locale.h'
p1809
sbsS'vector'
p1810
g336
(g1641
g338
Ntp1811
Rp1812
(dp1813
g1645
g1653
sg1646
g1654
sg362
S'd:/marmalade/7.8/s3e/h/std/c++/vector'
p1814
sbsS'IwManaged.h'
p1815
g336
(g1641
g338
Ntp1816
Rp1817
(dp1818
g1645
g1492
sg1646
g1682
sg362
g1501
sbsS's3eCompass.h'
p1819
g336
(g1641
g338
Ntp1820
Rp1821
(dp1822
g1645
g1653
sg1646
g1669
sg362
S'd:/marmalade/7.8/s3e/h/s3eCompass.h'
p1823
sbsS'cderror.h'
p1824
g336
(g1641
g338
Ntp1825
Rp1826
(dp1827
g1645
g1608
sg1646
g1741
sg362
g1623
sbsS'climits'
p1828
g336
(g1641
g338
Ntp1829
Rp1830
(dp1831
g1645
g1653
sg1646
g1654
sg362
S'd:/marmalade/7.8/s3e/h/std/c++/climits'
p1832
sbsS'ipc.h'
p1833
g336
(g1641
g338
Ntp1834
Rp1835
(dp1836
g1645
g1653
sg1646
g1801
sg362
S'd:/marmalade/7.8/s3e/h/std/sys/ipc.h'
p1837
sbsS'jversion.h'
p1838
g336
(g1641
g338
Ntp1839
Rp1840
(dp1841
g1645
g1608
sg1646
g1741
sg362
g1625
sbsS'fnmatch.h'
p1842
g336
(g1641
g338
Ntp1843
Rp1844
(dp1845
g1645
g1653
sg1646
g1675
sg362
S'd:/marmalade/7.8/s3e/h/std/fnmatch.h'
p1846
sbsS'IwGxState.h'
p1847
g336
(g1641
g338
Ntp1848
Rp1849
(dp1850
g1645
g1438
sg1646
g1787
sg362
g1443
sbsS's3eAudio.h'
p1851
g336
(g1641
g338
Ntp1852
Rp1853
(dp1854
g1645
g1653
sg1646
g1669
sg362
S'd:/marmalade/7.8/s3e/h/s3eAudio.h'
p1855
sbsS's3eSurface.h'
p1856
g336
(g1641
g338
Ntp1857
Rp1858
(dp1859
g1645
g1653
sg1646
g1669
sg362
S'd:/marmalade/7.8/s3e/h/s3eSurface.h'
p1860
sbsS'new'
p1861
g336
(g1641
g338
Ntp1862
Rp1863
(dp1864
g1645
g1653
sg1646
g1654
sg362
S'd:/marmalade/7.8/s3e/h/std/c++/new'
p1865
sbsS's3eWindow.h'
p1866
g336
(g1641
g338
Ntp1867
Rp1868
(dp1869
g1645
g1653
sg1646
(lp1870
g1655
aS'Extensions'
p1871
asg362
S'd:/marmalade/7.8/s3e/h/ext/s3eWindow.h'
p1872
sbsS'IwBuffer.h'
p1873
g336
(g1641
g338
Ntp1874
Rp1875
(dp1876
g1645
g1492
sg1646
g1682
sg362
g1569
sbsS'stdio_streambuf'
p1877
g336
(g1641
g338
Ntp1878
Rp1879
(dp1880
g1645
g1653
sg1646
g1654
sg362
S'd:/marmalade/7.8/s3e/h/std/c++/stdio_streambuf'
p1881
sbsS'IwGeomQuat.h.tpl'
p1882
g336
(g1641
g338
Ntp1883
Rp1884
(dp1885
g1645
g1338
sg1646
g1707
sg362
g1389
sbsS's3eOSExec.h'
p1886
g336
(g1641
g338
Ntp1887
Rp1888
(dp1889
g1645
g1653
sg1646
g1870
sg362
S'd:/marmalade/7.8/s3e/h/ext/s3eOSExec.h'
p1890
sbsS'IwGxTransformSW.h'
p1891
g336
(g1641
g338
Ntp1892
Rp1893
(dp1894
g1645
g1438
sg1646
g1787
sg362
g1486
sbsS'IwGxMetrics.h'
p1895
g336
(g1641
g338
Ntp1896
Rp1897
(dp1898
g1645
g1438
sg1646
g1787
sg362
g1449
sbsS'iwgxfont.config.txt'
p1899
g336
(g1641
g338
Ntp1900
Rp1901
(dp1902
g1645
g1316
sg1646
g1647
sg362
g1323
sbsS'gl2platform.h'
p1903
g336
(g1641
g338
Ntp1904
Rp1905
(dp1906
g1645
g1653
sg1646
(lp1907
g1655
aS'GL'
p1908
aS'GLES 2.0'
p1909
asg362
S'd:/marmalade/7.8/s3e/h/GLES2/gl2platform.h'
p1910
sbsS'IwResManagerClass.h'
p1911
g336
(g1641
g338
Ntp1912
Rp1913
(dp1914
g1645
g1414
sg1646
(lp1915
g1286
ag1410
asg362
g1430
sbsS'queue'
p1916
g336
(g1641
g338
Ntp1917
Rp1918
(dp1919
g1645
g1653
sg1646
g1654
sg362
S'd:/marmalade/7.8/s3e/h/std/c++/queue'
p1920
sbsS'time_1.h'
p1921
g336
(g1641
g338
Ntp1922
Rp1923
(dp1924
g1645
g1653
sg1646
g1801
sg362
S'd:/marmalade/7.8/s3e/h/std/sys/time.h'
p1925
sbsS'Iw2D.h'
p1926
g336
(g1641
g338
Ntp1927
Rp1928
(dp1929
g1645
g1304
sg1646
g1746
sg362
g1305
sbsS'IwGeomVec2.h'
p1930
g336
(g1641
g338
Ntp1931
Rp1932
(dp1933
g1645
g1338
sg1646
g1707
sg362
g1391
sbsS's3eDevice.h'
p1934
g336
(g1641
g338
Ntp1935
Rp1936
(dp1937
g1645
g1653
sg1646
g1669
sg362
S'd:/marmalade/7.8/s3e/h/s3eDevice.h'
p1938
sbsS'malloc.h'
p1939
g336
(g1641
g338
Ntp1940
Rp1941
(dp1942
g1645
g1653
sg1646
g1675
sg362
S'd:/marmalade/7.8/s3e/h/std/malloc.h'
p1943
sbsS'stdarg.h'
p1944
g336
(g1641
g338
Ntp1945
Rp1946
(dp1947
g1645
g1653
sg1646
g1675
sg362
S'd:/marmalade/7.8/s3e/h/std/stdarg.h'
p1948
sbsS'IwGeomCore.h'
p1949
g336
(g1641
g338
Ntp1950
Rp1951
(dp1952
g1645
g1338
sg1646
g1707
sg362
g1393
sbsS'endian.h'
p1953
g336
(g1641
g338
Ntp1954
Rp1955
(dp1956
g1645
g1653
sg1646
g1675
sg362
S'd:/marmalade/7.8/s3e/h/std/endian.h'
p1957
sbsS'gl3ext.h'
p1958
g336
(g1641
g338
Ntp1959
Rp1960
(dp1961
g1645
g1653
sg1646
(lp1962
g1655
aS'GL'
p1963
aS'GLES 3.0'
p1964
asg362
S'd:/marmalade/7.8/s3e/h/GLES3/gl3ext.h'
p1965
sbsS'glob.h'
p1966
g336
(g1641
g338
Ntp1967
Rp1968
(dp1969
g1645
g1653
sg1646
g1675
sg362
S'd:/marmalade/7.8/s3e/h/std/glob.h'
p1970
sbsS'fstream'
p1971
g336
(g1641
g338
Ntp1972
Rp1973
(dp1974
g1645
g1653
sg1646
g1654
sg362
S'd:/marmalade/7.8/s3e/h/std/c++/fstream'
p1975
sbsS's3eCamera.h'
p1976
g336
(g1641
g338
Ntp1977
Rp1978
(dp1979
g1645
g1653
sg1646
g1669
sg362
S'd:/marmalade/7.8/s3e/h/s3eCamera.h'
p1980
sbsS'jconfig.h'
p1981
g336
(g1641
g338
Ntp1982
Rp1983
(dp1984
g1645
g1608
sg1646
g1741
sg362
g1606
sbsS'memory'
p1985
g336
(g1641
g338
Ntp1986
Rp1987
(dp1988
g1645
g1653
sg1646
g1654
sg362
S'd:/marmalade/7.8/s3e/h/std/c++/memory'
p1989
sbsS'egl.h'
p1990
g336
(g1641
g338
Ntp1991
Rp1992
(dp1993
g1645
g1653
sg1646
(lp1994
g1655
aS'GL'
p1995
aS'EGL'
p1996
asg362
S'd:/marmalade/7.8/s3e/h/EGL/egl.h'
p1997
sbsS'IwClip.inl'
p1998
g336
(g1641
g338
Ntp1999
Rp2000
(dp2001
g1645
g1438
sg1646
g1787
sg362
g1468
sbsS'IwMemManagerDL.h'
p2002
g336
(g1641
g338
Ntp2003
Rp2004
(dp2005
g1645
g1492
sg1646
g1682
sg362
g1565
sbsS'deque'
p2006
g336
(g1641
g338
Ntp2007
Rp2008
(dp2009
g1645
g1653
sg1646
g1654
sg362
S'd:/marmalade/7.8/s3e/h/std/c++/deque'
p2010
sbsS'IwString.h'
p2011
g336
(g1641
g338
Ntp2012
Rp2013
(dp2014
g1645
g1492
sg1646
g1682
sg362
g1533
sbsS'cwchar'
p2015
g336
(g1641
g338
Ntp2016
Rp2017
(dp2018
g1645
g1653
sg1646
g1654
sg362
S'd:/marmalade/7.8/s3e/h/std/c++/cwchar'
p2019
sbsS'iwutil.mkf'
p2020
g336
(g1641
g338
Ntp2021
Rp2022
(dp2023
g1645
g1585
sg1646
g1682
sg362
g1583
sbsS'csignal'
p2024
g336
(g1641
g338
Ntp2025
Rp2026
(dp2027
g1645
g1653
sg1646
g1654
sg362
S'd:/marmalade/7.8/s3e/h/std/c++/csignal'
p2028
sbsS'pthread_types.h'
p2029
g336
(g1641
g338
Ntp2030
Rp2031
(dp2032
g1645
g1653
sg1646
g1675
sg362
S'd:/marmalade/7.8/s3e/h/std/pthread_types.h'
p2033
sbsS'pthread_alloc'
p2034
g336
(g1641
g338
Ntp2035
Rp2036
(dp2037
g1645
g1653
sg1646
g1654
sg362
S'd:/marmalade/7.8/s3e/h/std/c++/pthread_alloc'
p2038
sbsS'getopt.h'
p2039
g336
(g1641
g338
Ntp2040
Rp2041
(dp2042
g1645
g1653
sg1646
g1675
sg362
S'd:/marmalade/7.8/s3e/h/std/getopt.h'
p2043
sbsS'IwOptimiseARM.h'
p2044
g336
(g1641
g338
Ntp2045
Rp2046
(dp2047
g1645
g1492
sg1646
g1682
sg362
g1531
sbsS'times.h'
p2048
g336
(g1641
g338
Ntp2049
Rp2050
(dp2051
g1645
g1653
sg1646
g1801
sg362
S'd:/marmalade/7.8/s3e/h/std/sys/times.h'
p2052
sbsS'IwGeomFSphere.h'
p2053
g336
(g1641
g338
Ntp2054
Rp2055
(dp2056
g1645
g1338
sg1646
g1707
sg362
g1385
sbsS'amazon-ads-android-sdk.mkf'
p2057
g336
(g1641
g338
Ntp2058
Rp2059
(dp2060
g1645
g1170
sg1646
(lp2061
g1166
asg362
g1168
sbsS'functional'
p2062
g336
(g1641
g338
Ntp2063
Rp2064
(dp2065
g1645
g1653
sg1646
g1654
sg362
S'd:/marmalade/7.8/s3e/h/std/c++/functional'
p2066
sbsS'IwTypes.h'
p2067
g336
(g1641
g338
Ntp2068
Rp2069
(dp2070
g1645
g1492
sg1646
g1682
sg362
g1588
sbsS'unistd.h'
p2071
g336
(g1641
g338
Ntp2072
Rp2073
(dp2074
g1645
g1653
sg1646
g1675
sg362
S'd:/marmalade/7.8/s3e/h/std/unistd.h'
p2075
sbsS'audio.cpp'
p2076
g336
(g1641
g338
Ntp2077
Rp2078
(dp2079
g1645
g1242
sg1646
(lp2080
g1238
asg362
g1243
sbsS's3eCompression.h'
p2081
g336
(g1641
g338
Ntp2082
Rp2083
(dp2084
g1645
g1653
sg1646
g1669
sg362
S'd:/marmalade/7.8/s3e/h/s3eCompression.h'
p2085
sbsS'langinfo.h'
p2086
g336
(g1641
g338
Ntp2087
Rp2088
(dp2089
g1645
g1653
sg1646
g1675
sg362
S'd:/marmalade/7.8/s3e/h/std/langinfo.h'
p2090
sbsS's3edebugHeap.h'
p2091
g336
(g1641
g338
Ntp2092
Rp2093
(dp2094
g1645
g1653
sg1646
g1870
sg362
S'd:/marmalade/7.8/s3e/h/ext/s3edebugHeap.h'
p2095
sbsS'AirplayVersion.h'
p2096
g336
(g1641
g338
Ntp2097
Rp2098
(dp2099
g1645
g1653
sg1646
g1669
sg362
S'd:/marmalade/7.8/s3e/h/AirplayVersion.h'
p2100
sbsS'gl2extimg.h'
p2101
g336
(g1641
g338
Ntp2102
Rp2103
(dp2104
g1645
g1653
sg1646
g1907
sg362
S'd:/marmalade/7.8/s3e/h/GLES2/gl2extimg.h'
p2105
sbsS'IwGeomSqrt.h'
p2106
g336
(g1641
g338
Ntp2107
Rp2108
(dp2109
g1645
g1338
sg1646
g1707
sg362
g1402
sbsS'tiniconv_int.h'
p2110
g336
(g1641
g338
Ntp2111
Rp2112
(dp2113
g1645
g1175
sg1646
(lp2114
g1171
asg362
g1179
sbsS'syslog.h'
p2115
g336
(g1641
g338
Ntp2116
Rp2117
(dp2118
g1645
g1653
sg1646
g1675
sg362
S'd:/marmalade/7.8/s3e/h/std/syslog.h'
p2119
sbsS'IwGxFontTypes.h'
p2120
g336
(g1641
g338
Ntp2121
Rp2122
(dp2123
g1645
g1316
sg1646
g1647
sg362
g1321
sbsS'IwGeomFIntersect.h'
p2124
g336
(g1641
g338
Ntp2125
Rp2126
(dp2127
g1645
g1338
sg1646
g1707
sg362
g1408
sbsS'hash_map'
p2128
g336
(g1641
g338
Ntp2129
Rp2130
(dp2131
g1645
g1653
sg1646
g1654
sg362
S'd:/marmalade/7.8/s3e/h/std/c++/hash_map'
p2132
sbsS's3e.mkf'
p2133
g336
(g1641
g338
Ntp2134
Rp2135
(dp2136
g1645
(dp2137
sg1646
g1669
sg362
S'd:/marmalade/7.8/s3e/s3e.mkf'
p2138
sbsS'IwGeomMat2D.h.tpl'
p2139
g336
(g1641
g338
Ntp2140
Rp2141
(dp2142
g1645
g1338
sg1646
g1707
sg362
g1336
sbsS's3eOSReadString.h'
p2143
g336
(g1641
g338
Ntp2144
Rp2145
(dp2146
g1645
g1653
sg1646
g1870
sg362
S'd:/marmalade/7.8/s3e/h/ext/s3eOSReadString.h'
p2147
sbsS'IwSound.h'
p2148
g336
(g1641
g338
Ntp2149
Rp2150
(dp2151
g1645
g1190
sg1646
g1693
sg362
g1209
sbsS'map'
p2152
g336
(g1641
g338
Ntp2153
Rp2154
(dp2155
g1645
g1653
sg1646
g1654
sg362
S'd:/marmalade/7.8/s3e/h/std/c++/map'
p2156
sbsS'IwOptimiseSpeed.h'
p2157
g336
(g1641
g338
Ntp2158
Rp2159
(dp2160
g1645
g1492
sg1646
g1682
sg362
g1513
sbsS'ostream'
p2161
g336
(g1641
g338
Ntp2162
Rp2163
(dp2164
g1645
g1653
sg1646
g1654
sg362
S'd:/marmalade/7.8/s3e/h/std/c++/ostream'
p2165
sbsS'msl_string.h'
p2166
g336
(g1641
g338
Ntp2167
Rp2168
(dp2169
g1645
g1653
sg1646
g1654
sg362
S'd:/marmalade/7.8/s3e/h/std/c++/msl_string.h'
p2170
sbsS'select.h'
p2171
g336
(g1641
g338
Ntp2172
Rp2173
(dp2174
g1645
g1653
sg1646
g1801
sg362
S'd:/marmalade/7.8/s3e/h/std/sys/select.h'
p2175
sbsS'zlib.mkf'
p2176
g336
(g1641
g338
Ntp2177
Rp2178
(dp2179
g1645
g1602
sg1646
(lp2180
g1592
asg362
g1600
sbsS'signal.h'
p2181
g336
(g1641
g338
Ntp2182
Rp2183
(dp2184
g1645
g1653
sg1646
g1675
sg362
S'd:/marmalade/7.8/s3e/h/std/signal.h'
p2185
sbsS'sigcontext.h'
p2186
g336
(g1641
g338
Ntp2187
Rp2188
(dp2189
g1645
g1653
sg1646
g1675
sg362
S'd:/marmalade/7.8/s3e/h/std/sigcontext.h'
p2190
sbsS'libpng.mkf'
p2191
g336
(g1641
g338
Ntp2192
Rp2193
(dp2194
g1645
g1158
sg1646
(lp2195
g1154
asg362
g1156
sbsS's3eClipboard.h'
p2196
g336
(g1641
g338
Ntp2197
Rp2198
(dp2199
g1645
g1653
sg1646
g1669
sg362
S'd:/marmalade/7.8/s3e/h/s3eClipboard.h'
p2200
sbsS'IwGxFuncTable.h'
p2201
g336
(g1641
g338
Ntp2202
Rp2203
(dp2204
g1645
g1438
sg1646
g1787
sg362
g1439
sbsS'IwResHandlerGROUP.h'
p2205
g336
(g1641
g338
Ntp2206
Rp2207
(dp2208
g1645
g1414
sg1646
g1915
sg362
g1432
sbsS's3eDebug.h'
p2209
g336
(g1641
g338
Ntp2210
Rp2211
(dp2212
g1645
g1653
sg1646
g1669
sg362
S'd:/marmalade/7.8/s3e/h/s3eDebug.h'
p2213
sbsS'socket.h'
p2214
g336
(g1641
g338
Ntp2215
Rp2216
(dp2217
g1645
g1653
sg1646
g1801
sg362
S'd:/marmalade/7.8/s3e/h/std/sys/socket.h'
p2218
sbsS'glext.h'
p2219
g336
(g1641
g338
Ntp2220
Rp2221
(dp2222
g1645
g1653
sg1646
(lp2223
g1655
aS'GL'
p2224
aS'GLES 1.x'
p2225
asg362
S'd:/marmalade/7.8/s3e/h/GLES/glext.h'
p2226
sbsS'typeinfo.h'
p2227
g336
(g1641
g338
Ntp2228
Rp2229
(dp2230
g1645
g1653
sg1646
g1654
sg362
S'd:/marmalade/7.8/s3e/h/std/c++/typeinfo.h'
p2231
sbsS'typeinfo'
p2232
g336
(g1641
g338
Ntp2233
Rp2234
(dp2235
g1645
g1653
sg1646
g1654
sg362
S'd:/marmalade/7.8/s3e/h/std/c++/typeinfo'
p2236
sbsS'iwsound.config.txt'
p2237
g336
(g1641
g338
Ntp2238
Rp2239
(dp2240
g1645
g1190
sg1646
(lp2241
g1186
ag1203
asg362
g1205
sbsS'fstream.h'
p2242
g336
(g1641
g338
Ntp2243
Rp2244
(dp2245
g1645
g1653
sg1646
g1654
sg362
S'd:/marmalade/7.8/s3e/h/std/c++/fstream.h'
p2246
sbsS's3ePointer.h'
p2247
g336
(g1641
g338
Ntp2248
Rp2249
(dp2250
g1645
g1653
sg1646
g1669
sg362
S'd:/marmalade/7.8/s3e/h/s3ePointer.h'
p2251
sbsS'IwMemBucket.h'
p2252
g336
(g1641
g338
Ntp2253
Rp2254
(dp2255
g1645
g1492
sg1646
g1682
sg362
g1573
sbsS'PVRTexTool.h'
p2256
g336
(g1641
g338
Ntp2257
Rp2258
(dp2259
g1645
g1273
sg1646
(lp2260
S'Extensions'
p2261
ag1267
asg362
g1276
sbsS's3eGL.h'
p2262
g336
(g1641
g338
Ntp2263
Rp2264
(dp2265
g1645
g1653
sg1646
g1669
sg362
S'd:/marmalade/7.8/s3e/h/s3eGL.h'
p2266
sbsS'IwGeomFVec2.h'
p2267
g336
(g1641
g338
Ntp2268
Rp2269
(dp2270
g1645
g1338
sg1646
g1707
sg362
g1347
sbsS'IwGeomSVec4.h'
p2271
g336
(g1641
g338
Ntp2272
Rp2273
(dp2274
g1645
g1338
sg1646
g1707
sg362
g1373
sbsS'poll.h'
p2275
g336
(g1641
g338
Ntp2276
Rp2277
(dp2278
g1645
g1653
sg1646
g1675
sg362
S'd:/marmalade/7.8/s3e/h/std/poll.h'
p2279
sbsS'IwMatAnim.h'
p2280
g336
(g1641
g338
Ntp2281
Rp2282
(dp2283
g1645
g1438
sg1646
g1787
sg362
g1472
sbsS'IwGeomFVec4.h'
p2284
g336
(g1641
g338
Ntp2285
Rp2286
(dp2287
g1645
g1338
sg1646
g1707
sg362
g1371
sbsS'IwGx.h'
p2288
g336
(g1641
g338
Ntp2289
Rp2290
(dp2291
g1645
g1438
sg1646
g1787
sg362
g1441
sbsS'valarray'
p2292
g336
(g1641
g338
Ntp2293
Rp2294
(dp2295
g1645
g1653
sg1646
g1654
sg362
S'd:/marmalade/7.8/s3e/h/std/c++/valarray'
p2296
sbsS'iosfwd'
p2297
g336
(g1641
g338
Ntp2298
Rp2299
(dp2300
g1645
g1653
sg1646
g1654
sg362
S'd:/marmalade/7.8/s3e/h/std/c++/iosfwd'
p2301
sbsS'gl2.h'
p2302
g336
(g1641
g338
Ntp2303
Rp2304
(dp2305
g1645
g1653
sg1646
g1907
sg362
S'd:/marmalade/7.8/s3e/h/GLES2/gl2.h'
p2306
sbsS'jpegint.h'
p2307
g336
(g1641
g338
Ntp2308
Rp2309
(dp2310
g1645
g1608
sg1646
g1741
sg362
g1613
sbsS'stdiostream.h'
p2311
g336
(g1641
g338
Ntp2312
Rp2313
(dp2314
g1645
g1653
sg1646
g1654
sg362
S'd:/marmalade/7.8/s3e/h/std/c++/stdiostream.h'
p2315
sbsS'mem.h'
p2316
g336
(g1641
g338
Ntp2317
Rp2318
(dp2319
g1645
g1653
sg1646
g1654
sg362
S'd:/marmalade/7.8/s3e/h/std/c++/mem.h'
p2320
sbsS'jerror.h'
p2321
g336
(g1641
g338
Ntp2322
Rp2323
(dp2324
g1645
g1608
sg1646
g1741
sg362
g1615
sbsS'zconf.h'
p2325
g336
(g1641
g338
Ntp2326
Rp2327
(dp2328
g1645
g1597
sg1646
(lp2329
g1592
ag1159
asg362
g1598
sbsS's3e.config.txt'
p2330
g336
(g1641
g338
Ntp2331
Rp2332
(dp2333
g1645
g1653
sg1646
g1669
sg362
S'd:/marmalade/7.8/s3e/s3e.config.txt'
p2334
sbsS'numeric'
p2335
g336
(g1641
g338
Ntp2336
Rp2337
(dp2338
g1645
g1653
sg1646
g1654
sg362
S'd:/marmalade/7.8/s3e/h/std/c++/numeric'
p2339
sbsS'utime.h'
p2340
g336
(g1641
g338
Ntp2341
Rp2342
(dp2343
g1645
g1653
sg1646
g1675
sg362
S'd:/marmalade/7.8/s3e/h/std/utime.h'
p2344
sbsS'jdhuff.h'
p2345
g336
(g1641
g338
Ntp2346
Rp2347
(dp2348
g1645
g1608
sg1646
g1741
sg362
g1617
sbsS'IwResHandlerWAV.cpp'
p2349
g336
(g1641
g338
Ntp2350
Rp2351
(dp2352
g1645
g1190
sg1646
g1693
sg362
g1217
sbsS'IwGxStream.h'
p2353
g336
(g1641
g338
Ntp2354
Rp2355
(dp2356
g1645
g1438
sg1646
g1787
sg362
g1478
sbsS'IwImage.h'
p2357
g336
(g1641
g338
Ntp2358
Rp2359
(dp2360
g1645
g1492
sg1646
g1682
sg362
g1493
sbsS's3eImagePicker.h'
p2361
g336
(g1641
g338
Ntp2362
Rp2363
(dp2364
g1645
g1653
sg1646
g1870
sg362
S'd:/marmalade/7.8/s3e/h/ext/s3eImagePicker.h'
p2365
sbsS'stdlib.h'
p2366
g336
(g1641
g338
Ntp2367
Rp2368
(dp2369
g1645
g1653
sg1646
g1675
sg362
S'd:/marmalade/7.8/s3e/h/std/stdlib.h'
p2370
sbsS'IwCopyingPtr.h'
p2371
g336
(g1641
g338
Ntp2372
Rp2373
(dp2374
g1645
g1492
sg1646
g1682
sg362
g1535
sbsS'iostream'
p2375
g336
(g1641
g338
Ntp2376
Rp2377
(dp2378
g1645
g1653
sg1646
g1654
sg362
S'd:/marmalade/7.8/s3e/h/std/c++/iostream'
p2379
sbsS'png.h'
p2380
g336
(g1641
g338
Ntp2381
Rp2382
(dp2383
g1645
g1163
sg1646
(lp2384
g1154
ag1159
asg362
g1164
sbsS'stddef.h'
p2385
g336
(g1641
g338
Ntp2386
Rp2387
(dp2388
g1645
g1653
sg1646
g1675
sg362
S'd:/marmalade/7.8/s3e/h/std/stddef.h'
p2389
sbsS'setjmp_win32.h'
p2390
g336
(g1641
g338
Ntp2391
Rp2392
(dp2393
g1645
g1653
sg1646
g1675
sg362
S'd:/marmalade/7.8/s3e/h/std/setjmp_win32.h'
p2394
sbsS'IwGxPrint.h'
p2395
g336
(g1641
g338
Ntp2396
Rp2397
(dp2398
g1645
g1438
sg1646
g1787
sg362
g1484
sbsS'iwgx_public.defines.txt'
p2399
g336
(g1641
g338
Ntp2400
Rp2401
(dp2402
g1645
g1438
sg1646
g1787
sg362
g1451
sbsS'streambuf.h'
p2403
g336
(g1641
g338
Ntp2404
Rp2405
(dp2406
g1645
g1653
sg1646
g1654
sg362
S'd:/marmalade/7.8/s3e/h/std/c++/streambuf.h'
p2407
sbsS'IwGeomFPlane.h'
p2408
g336
(g1641
g338
Ntp2409
Rp2410
(dp2411
g1645
g1338
sg1646
g1707
sg362
g1395
sbsS'wchar.h'
p2412
g336
(g1641
g338
Ntp2413
Rp2414
(dp2415
g1645
g1653
sg1646
g1675
sg362
S'd:/marmalade/7.8/s3e/h/std/wchar.h'
p2416
sbsS's3eCameraCapture.h'
p2417
g336
(g1641
g338
Ntp2418
Rp2419
(dp2420
g1645
g1653
sg1646
g1870
sg362
S'd:/marmalade/7.8/s3e/h/ext/s3eCameraCapture.h'
p2421
sbsS'eglext.h'
p2422
g336
(g1641
g338
Ntp2423
Rp2424
(dp2425
g1645
g1653
sg1646
g1994
sg362
S'd:/marmalade/7.8/s3e/h/EGL/eglext.h'
p2426
sbsS'IwResHandlerImage.h'
p2427
g336
(g1641
g338
Ntp2428
Rp2429
(dp2430
g1645
g1414
sg1646
g1915
sg362
g1415
sbsS'strstream.h'
p2431
g336
(g1641
g338
Ntp2432
Rp2433
(dp2434
g1645
g1653
sg1646
g1654
sg362
S'd:/marmalade/7.8/s3e/h/std/c++/strstream.h'
p2435
sbsS'tiniconv.h'
p2436
g336
(g1641
g338
Ntp2437
Rp2438
(dp2439
g1645
g1175
sg1646
g2114
sg362
g1173
sbsS'IwGLExt.h'
p2440
g336
(g1641
g338
Ntp2441
Rp2442
(dp2443
g1645
g1292
sg1646
g1663
sg362
g1295
sbsS'app.icf'
p2444
g336
(g1641
g338
Ntp2445
Rp2446
(dp2447
g1645
(dp2448
sg1646
g4
sg362
S'd:/marm/Stage2/data/app.icf'
p2449
sbsS'IwClassFactory.h'
p2450
g336
(g1641
g338
Ntp2451
Rp2452
(dp2453
g1645
g1492
sg1646
g1682
sg362
g1581
sbsS'file.h'
p2454
g336
(g1641
g338
Ntp2455
Rp2456
(dp2457
g1645
g1653
sg1646
g1801
sg362
S'd:/marmalade/7.8/s3e/h/std/sys/file.h'
p2458
sbsS'cstring'
p2459
g336
(g1641
g338
Ntp2460
Rp2461
(dp2462
g1645
g1653
sg1646
g1654
sg362
S'd:/marmalade/7.8/s3e/h/std/c++/cstring'
p2463
sbsS'IwSoundInst.cpp'
p2464
g336
(g1641
g338
Ntp2465
Rp2466
(dp2467
g1645
g1190
sg1646
g1693
sg362
g1188
sbsS'iwutil.config.txt'
p2468
g336
(g1641
g338
Ntp2469
Rp2470
(dp2471
g1645
g1492
sg1646
g1682
sg362
g1559
sbsS's3eSMS.h'
p2472
g336
(g1641
g338
Ntp2473
Rp2474
(dp2475
g1645
g1653
sg1646
g1870
sg362
S'd:/marmalade/7.8/s3e/h/ext/s3eSMS.h'
p2476
sbsS'limits.h'
p2477
g336
(g1641
g338
Ntp2478
Rp2479
(dp2480
g1645
g1653
sg1646
g1675
sg362
S'd:/marmalade/7.8/s3e/h/std/limits.h'
p2481
sbsS'iwgl.config.txt'
p2482
g336
(g1641
g338
Ntp2483
Rp2484
(dp2485
g1645
g1292
sg1646
g1663
sg362
g1293
sbsS'IwMaterial.h'
p2486
g336
(g1641
g338
Ntp2487
Rp2488
(dp2489
g1645
g1438
sg1646
g1787
sg362
g1447
sbsS'amazon-ads-ios-sdk.mkf'
p2490
g336
(g1641
g338
Ntp2491
Rp2492
(dp2493
g1645
g1185
sg1646
(lp2494
g1181
asg362
g1183
sbsS'PVRTexTool_interface.cpp'
p2495
g336
(g1641
g338
Ntp2496
Rp2497
(dp2498
g1645
g1273
sg1646
(lp2499
g2261
ag1267
ag1269
asg362
g1274
sbsS'IwGxSurface.h'
p2500
g336
(g1641
g338
Ntp2501
Rp2502
(dp2503
g1645
g1438
sg1646
g1787
sg362
g1461
sbsS's3eSocket.h'
p2504
g336
(g1641
g338
Ntp2505
Rp2506
(dp2507
g1645
g1653
sg1646
g1669
sg362
S'd:/marmalade/7.8/s3e/h/s3eSocket.h'
p2508
sbsS'IwAutoFile.h'
p2509
g336
(g1641
g338
Ntp2510
Rp2511
(dp2512
g1645
g1492
sg1646
g1682
sg362
g1541
sbsS's3eVibra.h'
p2513
g336
(g1641
g338
Ntp2514
Rp2515
(dp2516
g1645
g1653
sg1646
g1669
sg362
S'd:/marmalade/7.8/s3e/h/s3eVibra.h'
p2517
sbsS'poll_1.h'
p2518
g336
(g1641
g338
Ntp2519
Rp2520
(dp2521
g1645
g1653
sg1646
g1801
sg362
S'd:/marmalade/7.8/s3e/h/std/sys/poll.h'
p2522
sbsS's3eThread.h'
p2523
g336
(g1641
g338
Ntp2524
Rp2525
(dp2526
g1645
g1653
sg1646
g1669
sg362
S'd:/marmalade/7.8/s3e/h/s3eThread.h'
p2527
sbsS'ucontext.h'
p2528
g336
(g1641
g338
Ntp2529
Rp2530
(dp2531
g1645
g1653
sg1646
g1675
sg362
S'd:/marmalade/7.8/s3e/h/std/ucontext.h'
p2532
sbsS'time.h'
p2533
g336
(g1641
g338
Ntp2534
Rp2535
(dp2536
g1645
g1653
sg1646
g1675
sg362
S'd:/marmalade/7.8/s3e/h/std/time.h'
p2537
sbsS'jchuff.h'
p2538
g336
(g1641
g338
Ntp2539
Rp2540
(dp2541
g1645
g1608
sg1646
g1741
sg362
g1633
sbsS'IwSoundPCM.cpp'
p2542
g336
(g1641
g338
Ntp2543
Rp2544
(dp2545
g1645
g1190
sg1646
g1693
sg362
g1191
sbsS's3eSoundRecord.h'
p2546
g336
(g1641
g338
Ntp2547
Rp2548
(dp2549
g1645
g1653
sg1646
g1669
sg362
S'd:/marmalade/7.8/s3e/h/s3eSoundRecord.h'
p2550
sbsS'IwFibre.h'
p2551
g336
(g1641
g338
Ntp2552
Rp2553
(dp2554
g1645
g1492
sg1646
g1682
sg362
g1563
sbsS's3eVersion.h'
p2555
g336
(g1641
g338
Ntp2556
Rp2557
(dp2558
g1645
g1653
sg1646
g1669
sg362
S'd:/marmalade/7.8/s3e/h/s3eVersion.h'
p2559
sbsS'input.cpp'
p2560
g336
(g1641
g338
Ntp2561
Rp2562
(dp2563
g1645
g1242
sg1646
g2080
sg362
g1247
sbsS'IwSoundGroup.h'
p2564
g336
(g1641
g338
Ntp2565
Rp2566
(dp2567
g1645
g1190
sg1646
g1693
sg362
g1230
sbsS'IwSoundWAV.h'
p2568
g336
(g1641
g338
Ntp2569
Rp2570
(dp2571
g1645
g1190
sg1646
g1693
sg362
g1207
sbsS'IwGxFontGlyph.h'
p2572
g336
(g1641
g338
Ntp2573
Rp2574
(dp2575
g1645
g1316
sg1646
g1647
sg362
g1329
sbsS's3eTypes.h'
p2576
g336
(g1641
g338
Ntp2577
Rp2578
(dp2579
g1645
g1653
sg1646
g1669
sg362
S'd:/marmalade/7.8/s3e/h/s3eTypes.h'
p2580
sbsS'IwSoundSpec.h'
p2581
g336
(g1641
g338
Ntp2582
Rp2583
(dp2584
g1645
g1190
sg1646
g1693
sg362
g1232
sbsS'signal_2.h'
p2585
g336
(g1641
g338
Ntp2586
Rp2587
(dp2588
g1645
g1653
sg1646
g1654
sg362
S'd:/marmalade/7.8/s3e/h/std/c++/signal.h'
p2589
sbsS'termios.h'
p2590
g336
(g1641
g338
Ntp2591
Rp2592
(dp2593
g1645
g1653
sg1646
g1675
sg362
S'd:/marmalade/7.8/s3e/h/std/termios.h'
p2594
sbsS's3eAmazonAds_interface.cpp'
p2595
g336
(g1641
g338
Ntp2596
Rp2597
(dp2598
g1645
g1259
sg1646
(lp2599
g1251
ag1253
ag1255
asg362
g1260
sbsS'slist'
p2600
g336
(g1641
g338
Ntp2601
Rp2602
(dp2603
g1645
g1653
sg1646
g1654
sg362
S'd:/marmalade/7.8/s3e/h/std/c++/slist'
p2604
sbsS'cstdlib'
p2605
g336
(g1641
g338
Ntp2606
Rp2607
(dp2608
g1645
g1653
sg1646
g1654
sg362
S'd:/marmalade/7.8/s3e/h/std/c++/cstdlib'
p2609
sbsS's3eLocation.h'
p2610
g336
(g1641
g338
Ntp2611
Rp2612
(dp2613
g1645
g1653
sg1646
g1669
sg362
S'd:/marmalade/7.8/s3e/h/s3eLocation.h'
p2614
sbsS'IwMemBucketHelpers.h'
p2615
g336
(g1641
g338
Ntp2616
Rp2617
(dp2618
g1645
g1492
sg1646
g1682
sg362
g1557
sbsS's3eHash.h'
p2619
g336
(g1641
g338
Ntp2620
Rp2621
(dp2622
g1645
g1653
sg1646
g1669
sg362
S'd:/marmalade/7.8/s3e/h/s3eHash.h'
p2623
sbsS'IwSoundGroup.cpp'
p2624
g336
(g1641
g338
Ntp2625
Rp2626
(dp2627
g1645
g1190
sg1646
g1693
sg362
g1219
sbsS'IwGeomFMat.h'
p2628
g336
(g1641
g338
Ntp2629
Rp2630
(dp2631
g1645
g1338
sg1646
g1707
sg362
g1369
sbsS'type_traits.h'
p2632
g336
(g1641
g338
Ntp2633
Rp2634
(dp2635
g1645
g1653
sg1646
g1654
sg362
S'd:/marmalade/7.8/s3e/h/std/c++/type_traits.h'
p2636
sbsS's3eAtomic.h'
p2637
g336
(g1641
g338
Ntp2638
Rp2639
(dp2640
g1645
g1653
sg1646
g1669
sg362
S'd:/marmalade/7.8/s3e/h/s3eAtomic.h'
p2641
sbsS'IwMenu.h'
p2642
g336
(g1641
g338
Ntp2643
Rp2644
(dp2645
g1645
g1492
sg1646
g1682
sg362
g1527
sbsS'IwResHandlerITX.h'
p2646
g336
(g1641
g338
Ntp2647
Rp2648
(dp2649
g1645
g1414
sg1646
g1915
sg362
g1412
sbsS'IwSoundData.h'
p2650
g336
(g1641
g338
Ntp2651
Rp2652
(dp2653
g1645
g1190
sg1646
g1693
sg362
g1201
sbsS'IwArray.h'
p2654
g336
(g1641
g338
Ntp2655
Rp2656
(dp2657
g1645
g1492
sg1646
g1682
sg362
g1515
sbsS'IwUTF8.h'
p2658
g336
(g1641
g338
Ntp2659
Rp2660
(dp2661
g1645
g1492
sg1646
g1682
sg362
g1499
sbsS'math_rvct.h'
p2662
g336
(g1641
g338
Ntp2663
Rp2664
(dp2665
g1645
g1653
sg1646
g1675
sg362
S'd:/marmalade/7.8/s3e/h/std/math_rvct.h'
p2666
sbsS'IwUtil.h'
p2667
g336
(g1641
g338
Ntp2668
Rp2669
(dp2670
g1645
g1492
sg1646
g1682
sg362
g1553
sbsS'IwFColour.h'
p2671
g336
(g1641
g338
Ntp2672
Rp2673
(dp2674
g1645
g1438
sg1646
g1787
sg362
g1436
sbsS's3eamazonads.mkf'
p2675
g336
(g1641
g338
Ntp2676
Rp2677
(dp2678
g1645
g1264
sg1646
(lp2679
g1251
ag1253
asg362
g1262
sbsS'wctype.h'
p2680
g336
(g1641
g338
Ntp2681
Rp2682
(dp2683
g1645
g1653
sg1646
g1675
sg362
S'd:/marmalade/7.8/s3e/h/std/wctype.h'
p2684
sbsS'cstddef'
p2685
g336
(g1641
g338
Ntp2686
Rp2687
(dp2688
g1645
g1653
sg1646
g1654
sg362
S'd:/marmalade/7.8/s3e/h/std/c++/cstddef'
p2689
sbsS'assert.h'
p2690
g336
(g1641
g338
Ntp2691
Rp2692
(dp2693
g1645
g1653
sg1646
g1675
sg362
S'd:/marmalade/7.8/s3e/h/std/assert.h'
p2694
sbsS'mman.h'
p2695
g336
(g1641
g338
Ntp2696
Rp2697
(dp2698
g1645
g1653
sg1646
g1801
sg362
S'd:/marmalade/7.8/s3e/h/std/sys/mman.h'
p2699
sbsS'IwRandom.h'
p2700
g336
(g1641
g338
Ntp2701
Rp2702
(dp2703
g1645
g1492
sg1646
g1682
sg362
g1511
sbsS'libgen.h'
p2704
g336
(g1641
g338
Ntp2705
Rp2706
(dp2707
g1645
g1653
sg1646
g1675
sg362
S'd:/marmalade/7.8/s3e/h/std/libgen.h'
p2708
sbsS'utsname.h'
p2709
g336
(g1641
g338
Ntp2710
Rp2711
(dp2712
g1645
g1653
sg1646
g1801
sg362
S'd:/marmalade/7.8/s3e/h/std/sys/utsname.h'
p2713
sbsS'wait.h'
p2714
g336
(g1641
g338
Ntp2715
Rp2716
(dp2717
g1645
g1653
sg1646
g1801
sg362
S'd:/marmalade/7.8/s3e/h/std/sys/wait.h'
p2718
sbsS'param.h'
p2719
g336
(g1641
g338
Ntp2720
Rp2721
(dp2722
g1645
g1653
sg1646
g1801
sg362
S'd:/marmalade/7.8/s3e/h/std/sys/param.h'
p2723
sbsS'IwDivide.h'
p2724
g336
(g1641
g338
Ntp2725
Rp2726
(dp2727
g1645
g1492
sg1646
g1682
sg362
g1561
sbsS'IwResManager.h'
p2728
g336
(g1641
g338
Ntp2729
Rp2730
(dp2731
g1645
g1414
sg1646
g1915
sg362
g1417
sbsS'IwSoundManager.h'
p2732
g336
(g1641
g338
Ntp2733
Rp2734
(dp2735
g1645
g1190
sg1646
g1693
sg362
g1228
sbsS'cwctype'
p2736
g336
(g1641
g338
Ntp2737
Rp2738
(dp2739
g1645
g1653
sg1646
g1654
sg362
S'd:/marmalade/7.8/s3e/h/std/c++/cwctype'
p2740
sbsS'set'
p2741
g336
(g1641
g338
Ntp2742
Rp2743
(dp2744
g1645
g1653
sg1646
g1654
sg362
S'd:/marmalade/7.8/s3e/h/std/c++/set'
p2745
sbsS'IwGeomSQuat.h'
p2746
g336
(g1641
g338
Ntp2747
Rp2748
(dp2749
g1645
g1338
sg1646
g1707
sg362
g1365
sbsS'locale'
p2750
g336
(g1641
g338
Ntp2751
Rp2752
(dp2753
g1645
g1653
sg1646
g1654
sg362
S'd:/marmalade/7.8/s3e/h/std/c++/locale'
p2754
sbsS'cstdio'
p2755
g336
(g1641
g338
Ntp2756
Rp2757
(dp2758
g1645
g1653
sg1646
g1654
sg362
S'd:/marmalade/7.8/s3e/h/std/c++/cstdio'
p2759
sbsS'cdjpeg.h'
p2760
g336
(g1641
g338
Ntp2761
Rp2762
(dp2763
g1645
g1608
sg1646
g1741
sg362
g1621
sbsS'audio.h'
p2764
g336
(g1641
g338
Ntp2765
Rp2766
(dp2767
g1645
g1242
sg1646
g2080
sg362
g1245
sbsS'IwList.h'
p2768
g336
(g1641
g338
Ntp2769
Rp2770
(dp2771
g1645
g1492
sg1646
g1682
sg362
g1537
sbsS'inttypes.h'
p2772
g336
(g1641
g338
Ntp2773
Rp2774
(dp2775
g1645
g1653
sg1646
g1675
sg362
S'd:/marmalade/7.8/s3e/h/std/inttypes.h'
p2776
sbsS'dirent.h'
p2777
g336
(g1641
g338
Ntp2778
Rp2779
(dp2780
g1645
g1653
sg1646
g1675
sg362
S'd:/marmalade/7.8/s3e/h/std/dirent.h'
p2781
sbsS'IwGeomVec3.h'
p2782
g336
(g1641
g338
Ntp2783
Rp2784
(dp2785
g1645
g1338
sg1646
g1707
sg362
g1367
sbsS'transupp.h'
p2786
g336
(g1641
g338
Ntp2787
Rp2788
(dp2789
g1645
g1608
sg1646
g1741
sg362
g1631
sbsS'IwMath.h'
p2790
g336
(g1641
g338
Ntp2791
Rp2792
(dp2793
g1645
g1492
sg1646
g1682
sg362
g1503
sbsS'IwGeomQuat.h'
p2794
g336
(g1641
g338
Ntp2795
Rp2796
(dp2797
g1645
g1338
sg1646
g1707
sg362
g1339
sbsS'glplatform.h'
p2798
g336
(g1641
g338
Ntp2799
Rp2800
(dp2801
g1645
g1653
sg1646
g2223
sg362
S'd:/marmalade/7.8/s3e/h/GLES/glplatform.h'
p2802
sbsS's3e-default.mkf'
p2803
g336
(g1641
g338
Ntp2804
Rp2805
(dp2806
g1645
g1285
sg1646
(lp2807
g1281
asg362
g1283
sbsS'bitset'
p2808
g336
(g1641
g338
Ntp2809
Rp2810
(dp2811
g1645
g1653
sg1646
g1654
sg362
S'd:/marmalade/7.8/s3e/h/std/c++/bitset'
p2812
sbsS'alloca.h'
p2813
g336
(g1641
g338
Ntp2814
Rp2815
(dp2816
g1645
g1653
sg1646
g1675
sg362
S'd:/marmalade/7.8/s3e/h/std/alloca.h'
p2817
sbsS'IwResHandler.h'
p2818
g336
(g1641
g338
Ntp2819
Rp2820
(dp2821
g1645
g1414
sg1646
g1915
sg362
g1428
sbsS'IwResHandlerMTL.h'
p2822
g336
(g1641
g338
Ntp2823
Rp2824
(dp2825
g1645
g1438
sg1646
g1787
sg362
g1453
sbsS'IwRuntime.h'
p2826
g336
(g1641
g338
Ntp2827
Rp2828
(dp2829
g1645
g1492
sg1646
g1682
sg362
g1579
sbsS'limits'
p2830
g336
(g1641
g338
Ntp2831
Rp2832
(dp2833
g1645
g1653
sg1646
g1654
sg362
S'd:/marmalade/7.8/s3e/h/std/c++/limits'
p2834
sbsS'IwGeomBBox.h'
p2835
g336
(g1641
g338
Ntp2836
Rp2837
(dp2838
g1645
g1338
sg1646
g1707
sg362
g1349
sbsS's3eContacts.h'
p2839
g336
(g1641
g338
Ntp2840
Rp2841
(dp2842
g1645
g1653
sg1646
g1669
sg362
S'd:/marmalade/7.8/s3e/h/s3eContacts.h'
p2843
sbsS's3eLicense.h'
p2844
g336
(g1641
g338
Ntp2845
Rp2846
(dp2847
g1645
g1653
sg1646
g1669
sg362
S'd:/marmalade/7.8/s3e/h/s3eLicense.h'
p2848
sbsS'iwgx.config.txt'
p2849
g336
(g1641
g338
Ntp2850
Rp2851
(dp2852
g1645
g1438
sg1646
g1787
sg362
g1480
sbsS'IwTextParser.h'
p2853
g336
(g1641
g338
Ntp2854
Rp2855
(dp2856
g1645
g1492
sg1646
g1682
sg362
g1521
sbsS's3eTimer.h'
p2857
g336
(g1641
g338
Ntp2858
Rp2859
(dp2860
g1645
g1653
sg1646
g1669
sg362
S'd:/marmalade/7.8/s3e/h/s3eTimer.h'
p2861
sbsS'IwGeomVec.h'
p2862
g336
(g1641
g338
Ntp2863
Rp2864
(dp2865
g1645
g1338
sg1646
g1707
sg362
g1383
sbsS'IwSerialise.h'
p2866
g336
(g1641
g338
Ntp2867
Rp2868
(dp2869
g1645
g1492
sg1646
g1682
sg362
g1490
sbsS'cstdarg'
p2870
g336
(g1641
g338
Ntp2871
Rp2872
(dp2873
g1645
g1653
sg1646
g1654
sg362
S'd:/marmalade/7.8/s3e/h/std/c++/cstdarg'
p2874
sbsS'gl2ext.h'
p2875
g336
(g1641
g338
Ntp2876
Rp2877
(dp2878
g1645
g1653
sg1646
g1907
sg362
S'd:/marmalade/7.8/s3e/h/GLES2/gl2ext.h'
p2879
sbsS'IwChar.h'
p2880
g336
(g1641
g338
Ntp2881
Rp2882
(dp2883
g1645
g1492
sg1646
g1682
sg362
g1539
sbsS's3eSound.h'
p2884
g336
(g1641
g338
Ntp2885
Rp2886
(dp2887
g1645
g1653
sg1646
g1669
sg362
S'd:/marmalade/7.8/s3e/h/s3eSound.h'
p2888
sbsS'IwOptimiseThumb.h'
p2889
g336
(g1641
g338
Ntp2890
Rp2891
(dp2892
g1645
g1492
sg1646
g1682
sg362
g1571
sbsS'exception.h'
p2893
g336
(g1641
g338
Ntp2894
Rp2895
(dp2896
g1645
g1653
sg1646
g1654
sg362
S'd:/marmalade/7.8/s3e/h/std/c++/exception.h'
p2897
sbsS'iwgeom.config.txt'
p2898
g336
(g1641
g338
Ntp2899
Rp2900
(dp2901
g1645
g1338
sg1646
g1707
sg362
g1377
sbsS'gl31.h'
p2902
g336
(g1641
g338
Ntp2903
Rp2904
(dp2905
g1645
g1653
sg1646
g1962
sg362
S'd:/marmalade/7.8/s3e/h/GLES3/gl31.h'
p2906
sbsS'gl.h'
p2907
g336
(g1641
g338
Ntp2908
Rp2909
(dp2910
g1645
g1653
sg1646
g2223
sg362
S'd:/marmalade/7.8/s3e/h/GLES/gl.h'
p2911
sbsS'zlib.h'
p2912
g336
(g1641
g338
Ntp2913
Rp2914
(dp2915
g1645
g1597
sg1646
g2329
sg362
g1595
sbsS'temp_defines_release.h'
p2916
g336
(g1641
g338
Ntp2917
Rp2918
(dp2919
g1645
(lp2920
sg1646
(lp2921
S"'generated files'"
p2922
asg362
S'd:/marm/Stage2/build_stage2_vc12x/temp_defines_release.h'
p2923
sbsS'iwgl.mkf'
p2924
g336
(g1641
g338
Ntp2925
Rp2926
(dp2927
g1645
g1299
sg1646
g1663
sg362
g1297
sbsS'IwColour.h'
p2928
g336
(g1641
g338
Ntp2929
Rp2930
(dp2931
g1645
g1438
sg1646
g1787
sg362
g1470
sbsS's3eLibrary.h'
p2932
g336
(g1641
g338
Ntp2933
Rp2934
(dp2935
g1645
g1653
sg1646
g1870
sg362
S'd:/marmalade/7.8/s3e/h/ext/s3eLibrary.h'
p2936
sbsS'types.h'
p2937
g336
(g1641
g338
Ntp2938
Rp2939
(dp2940
g1645
g1653
sg1646
g1801
sg362
S'd:/marmalade/7.8/s3e/h/std/sys/types.h'
p2941
sbsS'ifaddrs.h'
p2942
g336
(g1641
g338
Ntp2943
Rp2944
(dp2945
g1645
g1653
sg1646
g1675
sg362
S'd:/marmalade/7.8/s3e/h/std/ifaddrs.h'
p2946
sbsS'strstream'
p2947
g336
(g1641
g338
Ntp2948
Rp2949
(dp2950
g1645
g1653
sg1646
g1654
sg362
S'd:/marmalade/7.8/s3e/h/std/c++/strstream'
p2951
sbsS'exception'
p2952
g336
(g1641
g338
Ntp2953
Rp2954
(dp2955
g1645
g1653
sg1646
g1654
sg362
S'd:/marmalade/7.8/s3e/h/std/c++/exception'
p2956
sbsS's3eAmazonAds.defines.txt'
p2957
g336
(g1641
g338
Ntp2958
Rp2959
(dp2960
g1645
g1259
sg1646
g2599
sg362
g1257
sbsS'rlocks.h'
p2961
g336
(g1641
g338
Ntp2962
Rp2963
(dp2964
g1645
g1653
sg1646
g1654
sg362
S'd:/marmalade/7.8/s3e/h/std/c++/rlocks.h'
p2965
sbsS'ioctl.h'
p2966
g336
(g1641
g338
Ntp2967
Rp2968
(dp2969
g1645
g1653
sg1646
g1801
sg362
S'd:/marmalade/7.8/s3e/h/std/sys/ioctl.h'
p2970
sbsS'rope'
p2971
g336
(g1641
g338
Ntp2972
Rp2973
(dp2974
g1645
g1653
sg1646
g1654
sg362
S'd:/marmalade/7.8/s3e/h/std/c++/rope'
p2975
sbsS'jinclude.h'
p2976
g336
(g1641
g338
Ntp2977
Rp2978
(dp2979
g1645
g1608
sg1646
g1741
sg362
g1619
sbsS'IwEvent.h'
p2980
g336
(g1641
g338
Ntp2981
Rp2982
(dp2983
g1645
g1492
sg1646
g1682
sg362
g1509
sbsS'IwOptimiseSize.h'
p2984
g336
(g1641
g338
Ntp2985
Rp2986
(dp2987
g1645
g1492
sg1646
g1682
sg362
g1549
sbsS'iwgxfont_public.defines.txt'
p2988
g336
(g1641
g338
Ntp2989
Rp2990
(dp2991
g1645
g1316
sg1646
g1647
sg362
g1319
sbsS'iconv.h'
p2992
g336
(g1641
g338
Ntp2993
Rp2994
(dp2995
g1645
g1653
sg1646
g1675
sg362
S'd:/marmalade/7.8/s3e/h/std/iconv.h'
p2996
sbsS'sendfile.h'
p2997
g336
(g1641
g338
Ntp2998
Rp2999
(dp3000
g1645
g1653
sg1646
g1801
sg362
S'd:/marmalade/7.8/s3e/h/std/sys/sendfile.h'
p3001
sbsS'IwGeomSphere.h'
p3002
g336
(g1641
g338
Ntp3003
Rp3004
(dp3005
g1645
g1338
sg1646
g1707
sg362
g1379
sbsS'tiniconv.mkf'
p3006
g336
(g1641
g338
Ntp3007
Rp3008
(dp3009
g1645
g1178
sg1646
g2114
sg362
g1176
sbsS'jdct.h'
p3010
g336
(g1641
g338
Ntp3011
Rp3012
(dp3013
g1645
g1608
sg1646
g1741
sg362
g1611
sbsS'cctype'
p3014
g336
(g1641
g338
Ntp3015
Rp3016
(dp3017
g1645
g1653
sg1646
g1654
sg362
S'd:/marmalade/7.8/s3e/h/std/c++/cctype'
p3018
sbsS'IwSoundADPCM.cpp'
p3019
g336
(g1641
g338
Ntp3020
Rp3021
(dp3022
g1645
g1190
sg1646
g1693
sg362
g1224
sbsS's3eConfig.h'
p3023
g336
(g1641
g338
Ntp3024
Rp3025
(dp3026
g1645
g1653
sg1646
g1669
sg362
S'd:/marmalade/7.8/s3e/h/s3eConfig.h'
p3027
sbsS'IwHashString.h'
p3028
g336
(g1641
g338
Ntp3029
Rp3030
(dp3031
g1645
g1492
sg1646
g1682
sg362
g1586
sbsS'stat.h'
p3032
g336
(g1641
g338
Ntp3033
Rp3034
(dp3035
g1645
g1653
sg1646
g1801
sg362
S'd:/marmalade/7.8/s3e/h/std/sys/stat.h'
p3036
sbsS'byteswap.h'
p3037
g336
(g1641
g338
Ntp3038
Rp3039
(dp3040
g1645
g1653
sg1646
g1675
sg362
S'd:/marmalade/7.8/s3e/h/std/byteswap.h'
p3041
sbsS'iwresmanager.mkf'
p3042
g336
(g1641
g338
Ntp3043
Rp3044
(dp3045
g1645
g1427
sg1646
g1915
sg362
g1425
sbsS'IwUtilInitTerm.h'
p3046
g336
(g1641
g338
Ntp3047
Rp3048
(dp3049
g1645
g1492
sg1646
g1682
sg362
g1577
sbsS'pthread_1.h'
p3050
g336
(g1641
g338
Ntp3051
Rp3052
(dp3053
g1645
g1653
sg1646
g1654
sg362
S'd:/marmalade/7.8/s3e/h/std/c++/pthread.h'
p3054
sbsS'iw2d.mkf'
p3055
g336
(g1641
g338
Ntp3056
Rp3057
(dp3058
g1645
g1311
sg1646
g1746
sg362
g1309
sbsS'complex'
p3059
g336
(g1641
g338
Ntp3060
Rp3061
(dp3062
g1645
g1653
sg1646
g1654
sg362
S'd:/marmalade/7.8/s3e/h/std/c++/complex'
p3063
sbsS'algorithm'
p3064
g336
(g1641
g338
Ntp3065
Rp3066
(dp3067
g1645
g1653
sg1646
g1654
sg362
S'd:/marmalade/7.8/s3e/h/std/c++/algorithm'
p3068
sbsS's3e.icf'
p3069
g336
(g1641
g338
Ntp3070
Rp3071
(dp3072
g1645
g1653
sg1646
g1669
sg362
S'd:/marmalade/7.8/s3e/s3e.icf'
p3073
sbsS'IwVariableBitField.h'
p3074
g336
(g1641
g338
Ntp3075
Rp3076
(dp3077
g1645
g1492
sg1646
g1682
sg362
g1495
sbsS'sem.h'
p3078
g336
(g1641
g338
Ntp3079
Rp3080
(dp3081
g1645
g1653
sg1646
g1801
sg362
S'd:/marmalade/7.8/s3e/h/std/sys/sem.h'
p3082
sbsS'IwGxFontState.h'
p3083
g336
(g1641
g338
Ntp3084
Rp3085
(dp3086
g1645
g1316
sg1646
g1647
sg362
g1327
sbsS'stdio.h'
p3087
g336
(g1641
g338
Ntp3088
Rp3089
(dp3090
g1645
g1653
sg1646
g1675
sg362
S'd:/marmalade/7.8/s3e/h/std/stdio.h'
p3091
sbsS'jmemsys.h'
p3092
g336
(g1641
g338
Ntp3093
Rp3094
(dp3095
g1645
g1608
sg1646
g1741
sg362
g1629
sbsS'ios'
p3096
g336
(g1641
g338
Ntp3097
Rp3098
(dp3099
g1645
g1653
sg1646
g1654
sg362
S'd:/marmalade/7.8/s3e/h/std/c++/ios'
p3100
sbsS'PVRTexTool.defines.txt'
p3101
g336
(g1641
g338
Ntp3102
Rp3103
(dp3104
g1645
g1273
sg1646
g2499
sg362
g1271
sbsS'stack'
p3105
g336
(g1641
g338
Ntp3106
Rp3107
(dp3108
g1645
g1653
sg1646
g1654
sg362
S'd:/marmalade/7.8/s3e/h/std/c++/stack'
p3109
sbsS'IwSoundParams.h'
p3110
g336
(g1641
g338
Ntp3111
Rp3112
(dp3113
g1645
g1190
sg1646
g1693
sg362
g1199
sbsS'new.h'
p3114
g336
(g1641
g338
Ntp3115
Rp3116
(dp3117
g1645
g1653
sg1646
g1654
sg362
S'd:/marmalade/7.8/s3e/h/std/c++/new.h'
p3118
sbsS's3eAmazonAds.h'
p3119
g336
(g1641
g338
Ntp3120
Rp3121
(dp3122
g1645
g1259
sg1646
g2679
sg362
g1265
sbsS's3eEMail.h'
p3123
g336
(g1641
g338
Ntp3124
Rp3125
(dp3126
g1645
g1653
sg1646
g1870
sg362
S'd:/marmalade/7.8/s3e/h/ext/s3eEMail.h'
p3127
sbsS's3eVideo.h'
p3128
g336
(g1641
g338
Ntp3129
Rp3130
(dp3131
g1645
g1653
sg1646
g1669
sg362
S'd:/marmalade/7.8/s3e/h/s3eVideo.h'
p3132
sbsS'pngconf.h'
p3133
g336
(g1641
g338
Ntp3134
Rp3135
(dp3136
g1645
g1163
sg1646
g2384
sg362
g1161
sbsS'pwd.h'
p3137
g336
(g1641
g338
Ntp3138
Rp3139
(dp3140
g1645
g1653
sg1646
g1675
sg362
S'd:/marmalade/7.8/s3e/h/std/pwd.h'
p3141
sbsS'gl3.h'
p3142
g336
(g1641
g338
Ntp3143
Rp3144
(dp3145
g1645
g1653
sg1646
g1962
sg362
S'd:/marmalade/7.8/s3e/h/GLES3/gl3.h'
p3146
sbsS'IwClip.h'
p3147
g336
(g1641
g338
Ntp3148
Rp3149
(dp3150
g1645
g1438
sg1646
g1787
sg362
g1466
sbsS'IwSoundInst.h'
p3151
g336
(g1641
g338
Ntp3152
Rp3153
(dp3154
g1645
g1190
sg1646
g1693
sg362
g1226
sbsS'iwresmanager.config.txt'
p3155
g336
(g1641
g338
Ntp3156
Rp3157
(dp3158
g1645
g1414
sg1646
g1915
sg362
g1419
sbsS'IwGxShaderTechnique.h'
p3159
g336
(g1641
g338
Ntp3160
Rp3161
(dp3162
g1645
g1438
sg1646
g1787
sg362
g1474
sbsS'IwCore.h'
p3163
g336
(g1641
g338
Ntp3164
Rp3165
(dp3166
g1645
g1492
sg1646
g1682
sg362
g1519
sbsS'cfloat'
p3167
g336
(g1641
g338
Ntp3168
Rp3169
(dp3170
g1645
g1653
sg1646
g1654
sg362
S'd:/marmalade/7.8/s3e/h/std/c++/cfloat'
p3171
sbsS'IwGeomMat2D.h'
p3172
g336
(g1641
g338
Ntp3173
Rp3174
(dp3175
g1645
g1338
sg1646
g1707
sg362
g1404
sbsS'IwAllocator.h'
p3176
g336
(g1641
g338
Ntp3177
Rp3178
(dp3179
g1645
g1492
sg1646
g1682
sg362
g1551
sbsS'IwPath.h'
p3180
g336
(g1641
g338
Ntp3181
Rp3182
(dp3183
g1645
g1492
sg1646
g1682
sg362
g1567
sbsS'iwgxfont.mkf'
p3184
g336
(g1641
g338
Ntp3185
Rp3186
(dp3187
g1645
g1333
sg1646
g1647
sg362
g1331
sbsS'IwTexture.h'
p3188
g336
(g1641
g338
Ntp3189
Rp3190
(dp3191
g1645
g1438
sg1646
g1787
sg362
g1482
sbsS'IwGeomVec.h.tpl'
p3192
g336
(g1641
g338
Ntp3193
Rp3194
(dp3195
g1645
g1338
sg1646
g1707
sg362
g1343
sbsS's3eAccelerometer.h'
p3196
g336
(g1641
g338
Ntp3197
Rp3198
(dp3199
g1645
g1653
sg1646
g1669
sg362
S'd:/marmalade/7.8/s3e/h/s3eAccelerometer.h'
p3200
sbsS'setjmp.h'
p3201
g336
(g1641
g338
Ntp3202
Rp3203
(dp3204
g1645
g1653
sg1646
g1675
sg362
S'd:/marmalade/7.8/s3e/h/std/setjmp.h'
p3205
sbsS'IwSoundParams.cpp'
p3206
g336
(g1641
g338
Ntp3207
Rp3208
(dp3209
g1645
g1190
sg1646
g1693
sg362
g1213
sbsS'IwFile.h'
p3210
g336
(g1641
g338
Ntp3211
Rp3212
(dp3213
g1645
g1492
sg1646
g1682
sg362
g1543
sbsS'IwTextParseable.h'
p3214
g336
(g1641
g338
Ntp3215
Rp3216
(dp3217
g1645
g1492
sg1646
g1682
sg362
g1523
sbsS'istream.h'
p3218
g336
(g1641
g338
Ntp3219
Rp3220
(dp3221
g1645
g1653
sg1646
g1654
sg362
S'd:/marmalade/7.8/s3e/h/std/c++/istream.h'
p3222
sbsS'stdint.h'
p3223
g336
(g1641
g338
Ntp3224
Rp3225
(dp3226
g1645
g1653
sg1646
g1675
sg362
S'd:/marmalade/7.8/s3e/h/std/stdint.h'
p3227
sbsS'semaphore.h'
p3228
g336
(g1641
g338
Ntp3229
Rp3230
(dp3231
g1645
g1653
sg1646
g1675
sg362
S'd:/marmalade/7.8/s3e/h/std/semaphore.h'
p3232
sbsS'ctime'
p3233
g336
(g1641
g338
Ntp3234
Rp3235
(dp3236
g1645
g1653
sg1646
g1654
sg362
S'd:/marmalade/7.8/s3e/h/std/c++/ctime'
p3237
sbsS'sstream'
p3238
g336
(g1641
g338
Ntp3239
Rp3240
(dp3241
g1645
g1653
sg1646
g1654
sg362
S'd:/marmalade/7.8/s3e/h/std/c++/sstream'
p3242
sbsS'IwGeomFBBox.h'
p3243
g336
(g1641
g338
Ntp3244
Rp3245
(dp3246
g1645
g1338
sg1646
g1707
sg362
g1387
sbsS'IwDebugPrim.h'
p3247
g336
(g1641
g338
Ntp3248
Rp3249
(dp3250
g1645
g1438
sg1646
g1787
sg362
g1457
sbsS'IwGxFontContainer.h'
p3251
g336
(g1641
g338
Ntp3252
Rp3253
(dp3254
g1645
g1316
sg1646
g1647
sg362
g1314
sbsS'IwGeomSVec3.h'
p3255
g336
(g1641
g338
Ntp3256
Rp3257
(dp3258
g1645
g1338
sg1646
g1707
sg362
g1361
sbsS's3eExt.h'
p3259
g336
(g1641
g338
Ntp3260
Rp3261
(dp3262
g1645
g1653
sg1646
g1669
sg362
S'd:/marmalade/7.8/s3e/h/s3eExt.h'
p3263
sbsS'IwGeomFVec3.h'
p3264
g336
(g1641
g338
Ntp3265
Rp3266
(dp3267
g1645
g1338
sg1646
g1707
sg362
g1351
sbsS'streambuf'
p3268
g336
(g1641
g338
Ntp3269
Rp3270
(dp3271
g1645
g1653
sg1646
g1654
sg362
S'd:/marmalade/7.8/s3e/h/std/c++/streambuf'
p3272
sbsS's3eMetrics.h'
p3273
g336
(g1641
g338
Ntp3274
Rp3275
(dp3276
g1645
g1653
sg1646
g1870
sg362
S'd:/marmalade/7.8/s3e/h/ext/s3eMetrics.h'
p3277
sbsS'IwGxFont.h'
p3278
g336
(g1641
g338
Ntp3279
Rp3280
(dp3281
g1645
g1316
sg1646
g1647
sg362
g1317
sbsS's3eSecureStorage.h'
p3282
g336
(g1641
g338
Ntp3283
Rp3284
(dp3285
g1645
g1653
sg1646
g1669
sg362
S'd:/marmalade/7.8/s3e/h/s3eSecureStorage.h'
p3286
sbsS'string.h'
p3287
g336
(g1641
g338
Ntp3288
Rp3289
(dp3290
g1645
g1653
sg1646
g1675
sg362
S'd:/marmalade/7.8/s3e/h/std/string.h'
p3291
sbsS'IwResource.h'
p3292
g336
(g1641
g338
Ntp3293
Rp3294
(dp3295
g1645
g1492
sg1646
g1682
sg362
g1507
sbsS'IwGeomSVec2.h'
p3296
g336
(g1641
g338
Ntp3297
Rp3298
(dp3299
g1645
g1338
sg1646
g1707
sg362
g1363
sbsS'libjpeg.mkf'
p3300
g336
(g1641
g338
Ntp3301
Rp3302
(dp3303
g1645
g1637
sg1646
(lp3304
g1603
asg362
g1635
sbsS'IwGxDebug.h'
p3305
g336
(g1641
g338
Ntp3306
Rp3307
(dp3308
g1645
g1438
sg1646
g1787
sg362
g1455
sbsS'float.h'
p3309
g336
(g1641
g338
Ntp3310
Rp3311
(dp3312
g1645
g1653
sg1646
g1675
sg362
S'd:/marmalade/7.8/s3e/h/std/float.h'
p3313
sbsS'iomanip.h'
p3314
g336
(g1641
g338
Ntp3315
Rp3316
(dp3317
g1645
g1653
sg1646
g1654
sg362
S'd:/marmalade/7.8/s3e/h/std/c++/iomanip.h'
p3318
sbsS'IwKeymap.h'
p3319
g336
(g1641
g338
Ntp3320
Rp3321
(dp3322
g1645
g1492
sg1646
g1682
sg362
g1517
sbsS'IwDebug.h'
p3323
g336
(g1641
g338
Ntp3324
Rp3325
(dp3326
g1645
g1492
sg1646
g1682
sg362
g1547
sbsS's3eIOSBackgroundAudio.h'
p3327
g336
(g1641
g338
Ntp3328
Rp3329
(dp3330
g1645
g1653
sg1646
g1870
sg362
S'd:/marmalade/7.8/s3e/h/ext/s3eIOSBackgroundAudio.h'
p3331
sbsS'IwGeomMenu.h'
p3332
g336
(g1641
g338
Ntp3333
Rp3334
(dp3335
g1645
g1338
sg1646
g1707
sg362
g1406
sbsS'IwDivTable.h'
p3336
g336
(g1641
g338
Ntp3337
Rp3338
(dp3339
g1645
g1492
sg1646
g1682
sg362
g1545
sbsS'ctype.h'
p3340
g336
(g1641
g338
Ntp3341
Rp3342
(dp3343
g1645
g1653
sg1646
g1675
sg362
S'd:/marmalade/7.8/s3e/h/std/ctype.h'
p3344
sbsS'IwGeomMat.h'
p3345
g336
(g1641
g338
Ntp3346
Rp3347
(dp3348
g1645
g1338
sg1646
g1707
sg362
g1357
sbsS'IwResGroup.h'
p3349
g336
(g1641
g338
Ntp3350
Rp3351
(dp3352
g1645
g1414
sg1646
g1915
sg362
g1421
sbsS'signal_1.h'
p3353
g336
(g1641
g338
Ntp3354
Rp3355
(dp3356
g1645
g1653
sg1646
g1801
sg362
S'd:/marmalade/7.8/s3e/h/std/sys/signal.h'
p3357
sbsS'IwSoundData.cpp'
p3358
g336
(g1641
g338
Ntp3359
Rp3360
(dp3361
g1645
g1190
sg1646
g1693
sg362
g1197
sbsS'main.cpp'
p3362
g336
(g1641
g338
Ntp3363
Rp3364
(dp3365
g1645
g1242
sg1646
g2080
sg362
g1240
sbsS'shm.h'
p3366
g336
(g1641
g338
Ntp3367
Rp3368
(dp3369
g1645
g1653
sg1646
g1801
sg362
S'd:/marmalade/7.8/s3e/h/std/sys/shm.h'
p3370
sbsS'IwManagedList.h'
p3371
g336
(g1641
g338
Ntp3372
Rp3373
(dp3374
g1645
g1492
sg1646
g1682
sg362
g1525
sbsS'prctl.h'
p3375
g336
(g1641
g338
Ntp3376
Rp3377
(dp3378
g1645
g1653
sg1646
g1801
sg362
S'd:/marmalade/7.8/s3e/h/std/sys/prctl.h'
p3379
sbsS'un.h'
p3380
g336
(g1641
g338
Ntp3381
Rp3382
(dp3383
g1645
g1653
sg1646
g1801
sg362
S'd:/marmalade/7.8/s3e/h/std/sys/un.h'
p3384
sbsS'temp_defines_debug.h'
p3385
g336
(g1641
g338
Ntp3386
Rp3387
(dp3388
g1645
(lp3389
sg1646
(lp3390
g2922
asg362
S'd:/marm/Stage2/build_stage2_vc12x/temp_defines_debug.h'
p3391
sbsS'utility'
p3392
g336
(g1641
g338
Ntp3393
Rp3394
(dp3395
g1645
g1653
sg1646
g1654
sg362
S'd:/marmalade/7.8/s3e/h/std/c++/utility'
p3396
sbsS'input.h'
p3397
g336
(g1641
g338
Ntp3398
Rp3399
(dp3400
g1645
g1242
sg1646
g2080
sg362
g1249
sbsS'IwGeomLegacy.h'
p3401
g336
(g1641
g338
Ntp3402
Rp3403
(dp3404
g1645
g1338
sg1646
g1707
sg362
g1345
sbsS'IwTPage.h'
p3405
g336
(g1641
g338
Ntp3406
Rp3407
(dp3408
g1645
g1438
sg1646
g1787
sg362
g1459
sbsS'IwResSerialise.h'
p3409
g336
(g1641
g338
Ntp3410
Rp3411
(dp3412
g1645
g1414
sg1646
g1915
sg362
g1423
sbsS's3eCrypto.h'
p3413
g336
(g1641
g338
Ntp3414
Rp3415
(dp3416
g1645
g1653
sg1646
g1669
sg362
S'd:/marmalade/7.8/s3e/h/s3eCrypto.h'
p3417
sbsS's3eKeyboard.h'
p3418
g336
(g1641
g338
Ntp3419
Rp3420
(dp3421
g1645
g1653
sg1646
g1669
sg362
S'd:/marmalade/7.8/s3e/h/s3eKeyboard.h'
p3422
sbsS'fcntl.h'
p3423
g336
(g1641
g338
Ntp3424
Rp3425
(dp3426
g1645
g1653
sg1646
g1675
sg362
S'd:/marmalade/7.8/s3e/h/std/fcntl.h'
p3427
sbsS'memory.h'
p3428
g336
(g1641
g338
Ntp3429
Rp3430
(dp3431
g1645
g1653
sg1646
g1675
sg362
S'd:/marmalade/7.8/s3e/h/std/memory.h'
p3432
sbsS'pthread.h'
p3433
g336
(g1641
g338
Ntp3434
Rp3435
(dp3436
g1645
g1653
sg1646
g1675
sg362
S'd:/marmalade/7.8/s3e/h/std/pthread.h'
p3437
sbsS'IwGeomIntersect.h'
p3438
g336
(g1641
g338
Ntp3439
Rp3440
(dp3441
g1645
g1338
sg1646
g1707
sg362
g1341
sbsS'IwTextParserITX.h'
p3442
g336
(g1641
g338
Ntp3443
Rp3444
(dp3445
g1645
g1492
sg1646
g1682
sg362
g1590
sbsS'egl_1.h'
p3446
g336
(g1641
g338
Ntp3447
Rp3448
(dp3449
g1645
g1653
sg1646
g2223
sg362
S'd:/marmalade/7.8/s3e/h/GLES/egl.h'
p3450
sbsS'ostream.h'
p3451
g336
(g1641
g338
Ntp3452
Rp3453
(dp3454
g1645
g1653
sg1646
g1654
sg362
S'd:/marmalade/7.8/s3e/h/std/c++/ostream.h'
p3455
sbsS'stl_user_config.h'
p3456
g336
(g1641
g338
Ntp3457
Rp3458
(dp3459
g1645
g1653
sg1646
g1654
sg362
S'd:/marmalade/7.8/s3e/h/std/c++/stl_user_config.h'
p3460
sbsS'iwgx.mkf'
p3461
g336
(g1641
g338
Ntp3462
Rp3463
(dp3464
g1645
g1465
sg1646
g1787
sg362
g1463
sbsS'IwProfileMenu.h'
p3465
g336
(g1641
g338
Ntp3466
Rp3467
(dp3468
g1645
g1492
sg1646
g1682
sg362
g1575
sbsS'MarmaladeVersion.h'
p3469
g336
(g1641
g338
Ntp3470
Rp3471
(dp3472
g1645
g1653
sg1646
g1669
sg362
S'd:/marmalade/7.8/s3e/h/MarmaladeVersion.h'
p3473
sbsS'IwResHandlerWAV.h'
p3474
g336
(g1641
g338
Ntp3475
Rp3476
(dp3477
g1645
g1190
sg1646
g1693
sg362
g1236
sbsS'gl3platform.h'
p3478
g336
(g1641
g338
Ntp3479
Rp3480
(dp3481
g1645
g1653
sg1646
g1962
sg362
S'd:/marmalade/7.8/s3e/h/GLES3/gl3platform.h'
p3482
sbsS'ios.h'
p3483
g336
(g1641
g338
Ntp3484
Rp3485
(dp3486
g1645
g1653
sg1646
g1654
sg362
S'd:/marmalade/7.8/s3e/h/std/c++/ios.h'
p3487
sbsS'IwImageHelper.h'
p3488
g336
(g1641
g338
Ntp3489
Rp3490
(dp3491
g1645
g1492
sg1646
g1682
sg362
g1505
sbsS'hash_set'
p3492
g336
(g1641
g338
Ntp3493
Rp3494
(dp3495
g1645
g1653
sg1646
g1654
sg362
S'd:/marmalade/7.8/s3e/h/std/c++/hash_set'
p3496
sbsS'IwGeomFQuat.h'
p3497
g336
(g1641
g338
Ntp3498
Rp3499
(dp3500
g1645
g1338
sg1646
g1707
sg362
g1359
sbsS'jmorecfg.h'
p3501
g336
(g1641
g338
Ntp3502
Rp3503
(dp3504
g1645
g1608
sg1646
g1741
sg362
g1609
sbsS'eglplatform.h'
p3505
g336
(g1641
g338
Ntp3506
Rp3507
(dp3508
g1645
g1653
sg1646
g1994
sg362
S'd:/marmalade/7.8/s3e/h/EGL/eglplatform.h'
p3509
sbsS'cmath'
p3510
g336
(g1641
g338
Ntp3511
Rp3512
(dp3513
g1645
g1653
sg1646
g1654
sg362
S'd:/marmalade/7.8/s3e/h/std/c++/cmath'
p3514
sbsS'math_gcc.h'
p3515
g336
(g1641
g338
Ntp3516
Rp3517
(dp3518
g1645
g1653
sg1646
g1675
sg362
S'd:/marmalade/7.8/s3e/h/std/math_gcc.h'
p3519
sbsS's3eMemory.h'
p3520
g336
(g1641
g338
Ntp3521
Rp3522
(dp3523
g1645
g1653
sg1646
g1669
sg362
S'd:/marmalade/7.8/s3e/h/s3eMemory.h'
p3524
sbsS'strings.h'
p3525
g336
(g1641
g338
Ntp3526
Rp3527
(dp3528
g1645
g1653
sg1646
g1675
sg362
S'd:/marmalade/7.8/s3e/h/std/strings.h'
p3529
sbsS's3eFile.h'
p3530
g336
(g1641
g338
Ntp3531
Rp3532
(dp3533
g1645
g1653
sg1646
g1669
sg362
S'd:/marmalade/7.8/s3e/h/s3eFile.h'
p3534
sbsS'IwGxTypes.h'
p3535
g336
(g1641
g338
Ntp3536
Rp3537
(dp3538
g1645
g1438
sg1646
g1787
sg362
g1476
sbsS'cerrno'
p3539
g336
(g1641
g338
Ntp3540
Rp3541
(dp3542
g1645
g1653
sg1646
g1654
sg362
S'd:/marmalade/7.8/s3e/h/std/c++/cerrno'
p3543
sbsS'IwSoundManager.cpp'
p3544
g336
(g1641
g338
Ntp3545
Rp3546
(dp3547
g1645
g1190
sg1646
g1693
sg362
g1211
sbsS'soundengine.mkf'
p3548
g336
(g1641
g338
Ntp3549
Rp3550
(dp3551
g1645
g1223
sg1646
g1693
sg362
g1221
sbsS'resource.h'
p3552
g336
(g1641
g338
Ntp3553
Rp3554
(dp3555
g1645
g1653
sg1646
g1801
sg362
S'd:/marmalade/7.8/s3e/h/std/sys/resource.h'
p3556
sbsS'clocale'
p3557
g336
(g1641
g338
Ntp3558
Rp3559
(dp3560
g1645
g1653
sg1646
g1654
sg362
S'd:/marmalade/7.8/s3e/h/std/c++/clocale'
p3561
sbsS'pvrtextool.mkf'
p3562
g336
(g1641
g338
Ntp3563
Rp3564
(dp3565
g1645
g1280
sg1646
g2260
sg362
g1278
sbsS'csetjmp'
p3566
g336
(g1641
g338
Ntp3567
Rp3568
(dp3569
g1645
g1653
sg1646
g1654
sg362
S'd:/marmalade/7.8/s3e/h/std/c++/csetjmp'
p3570
sbsS'netdb.h'
p3571
g336
(g1641
g338
Ntp3572
Rp3573
(dp3574
g1645
g1653
sg1646
g1675
sg362
S'd:/marmalade/7.8/s3e/h/std/netdb.h'
p3575
sbsS's3eAndroidJNI.h'
p3576
g336
(g1641
g338
Ntp3577
Rp3578
(dp3579
g1645
g1653
sg1646
g1870
sg362
S'd:/marmalade/7.8/s3e/h/ext/s3eAndroidJNI.h'
p3580
sbsS'stdexcept'
p3581
g336
(g1641
g338
Ntp3582
Rp3583
(dp3584
g1645
g1653
sg1646
g1654
sg362
S'd:/marmalade/7.8/s3e/h/std/c++/stdexcept'
p3585
sbsS'math.h'
p3586
g336
(g1641
g338
Ntp3587
Rp3588
(dp3589
g1645
g1653
sg1646
g1675
sg362
S'd:/marmalade/7.8/s3e/h/std/math.h'
p3590
sbsS'stdbool.h'
p3591
g336
(g1641
g338
Ntp3592
Rp3593
(dp3594
g1645
g1653
sg1646
g1675
sg362
S'd:/marmalade/7.8/s3e/h/std/stdbool.h'
p3595
sbsS'uio.h'
p3596
g336
(g1641
g338
Ntp3597
Rp3598
(dp3599
g1645
g1653
sg1646
g1801
sg362
S'd:/marmalade/7.8/s3e/h/std/sys/uio.h'
p3600
sbsS'IwUncopyable.h'
p3601
g336
(g1641
g338
Ntp3602
Rp3603
(dp3604
g1645
g1492
sg1646
g1682
sg362
g1497
sbssS'juice_build_type'
p3605
g4
sS'tests'
p3606
(lp3607
sS'project_name'
p3608
g344
sS'root_file'
p3609
g140
sS'current_root'
p3610
S'd:/marm/Stage2'
p3611
sS'dependencies'
p3612
(lp3613
sS'include_paths'
p3614
(lp3615
S'd:/marmalade/7.8/extensions/s3eamazonads/h'
p3616
aS'd:/marmalade/7.8/modules/iwutil/h'
p3617
aS'd:/marmalade/7.8/modules/third_party/libjpeg/h'
p3618
aS'd:/marmalade/7.8/modules/third_party/zlib/h'
p3619
aS'd:/marmalade/7.8/modules/third_party/libpng/h'
p3620
aS'd:/marmalade/7.8/modules/iw2d/h'
p3621
aS'd:/marmalade/7.8/modules/iwgx/h'
p3622
aS'd:/marmalade/7.8/modules/iwgl/h'
p3623
aS'd:/marmalade/7.8/modules/iwgeom/h'
p3624
aS'd:/marmalade/7.8/modules/iwresmanager/h'
p3625
aS'd:/marmalade/7.8/extensions/pvrtextool/h'
p3626
aS'd:/marmalade/7.8/modules/iwgxfont/h'
p3627
aS'd:/marmalade/7.8/modules/third_party/tiniconv/source'
p3628
aS'd:/marm/stage2/modules/soundengine/h'
p3629
aS'd:/marm/stage2/modules/soundengine/source'
p3630
aS'd:/marmalade/7.8/s3e/h'
p3631
aS'd:/marmalade/7.8/s3e/h/ext'
p3632
aS'd:/marmalade/7.8/s3e/h/std'
p3633
aS'd:/marmalade/7.8/s3e/h/std/c++'
p3634
aS'd:/marmalade/7.8/s3e/h/ext_legacy'
p3635
aS'd:/marmalade/7.8/s3e/h/legacy'
p3636
asS'weak_frameworks'
p3637
(lp3638
sS'extprojects'
p3639
(dp3640
sg640
(dp3641
g634
(lp3642
(S'd:/marm/Stage2/data/textures'
p3643
S'textures'
p3644
I0
tp3645
a(S'd:/marm/Stage2/data/audio'
p3646
S'audio'
p3647
I0
tp3648
assS'macro_types'
p3649
(dp3650
g569
I0
sg571
I1
sg572
I0
sg573
I0
sg574
I0
sg575
I0
sg577
I0
sg578
I0
sg579
I0
sg580
I0
sg581
I0
sg582
I0
sg584
I0
sg585
I0
sg586
I0
sg587
I0
sg588
I0
sg589
I0
sg590
I0
sg591
I0
sg593
I0
sg594
I0
sg595
I0
sg596
I0
sg597
I0
sg598
I0
sg599
I1
sg600
I0
sg601
I0
sg602
I0
sg603
I01
sg604
I1
sg605
I0
sg606
I0
sg607
I0
sg608
I0
sg609
I0
sg610
I0
ssS'commands'
p3651
(lp3652
sg642
(g1147
S'VC12X'
p3653
S'X86ARMAARCH64'
p3654
tp3655
sS'build_libs'
p3656
(dp3657
sg644
g0
sS'frameworks'
p3658
(lp3659
sS'environ'
p3660
(dp3661
S'NACL_ROOT'
p3662
S'd:\\marmalade\\7.8/tools/gcc/x86_64/nacl_windows'
p3663
ssS'target_name_debug'
p3664
g344
sS'builders'
p3665
(dp3666
g634
(dp3667
S'.S'
p3668
(dp3669
S'gcc_aarch64'
p3670
(lp3671
S'.obj'
p3672
aS'echo AARCH64 Assembling(GCC) ${SOURCE}...'
p3673
aS'd:/marmalade/7.8/s3e\\gcc\\win32\\aarch64\\bin\\aarch64-none-elf-gcc -c -o ${TARGET} ${SOURCE}'
p3674
asS'rvct'
p3675
(lp3676
g3672
aS'echo ARM Assembling(RVCT) ${SOURCE}...'
p3677
aS'd:/marmalade/7.8/s3e\\rvct\\bin\\armasm -o ${TARGET} ${SOURCE}'
p3678
asg465
(lp3679
g3672
aS'echo ARM Assembling(GCC) ${SOURCE}...'
p3680
aS'd:/marmalade/7.8/s3e\\gcc\\win32\\arm\\bin\\arm-none-eabi-gcc -c -o ${TARGET} ${SOURCE}'
p3681
asS'ppu'
p3682
(lp3683
S'.a'
p3684
aS'echo PPU Assembling(SNC) ${SOURCE}...'
p3685
aS'd:/marmalade/7.8/s3e\\rvct\\bin\\armasm -o ${TARGET} ${SOURCE}'
p3686
assS'.s'
p3687
g3669
sS'.vp'
p3688
(lp3689
NaS'"D:/Marmalade/7.8/s3e/python/python.exe" "d:/marmalade/7.8/modules/iwgx/tools/compile_shaders.py" ${SOURCE}'
p3690
asssS'extproject_names'
p3691
(lp3692
sbtp3693
.